---
triple:          'arm64-apple-darwin'
binary-path:     cache_simulator
relocations:
  - { offsetInCU: 0x44, offset: 0x44, size: 0x8, addend: 0x0, symName: __ZN7sc_coreL17api_version_checkE, symObjAddr: 0xCFFBA, symBinAddr: 0x100014000, symSize: 0x0 }
  - { offsetInCU: 0xA73D, offset: 0xA73D, size: 0x8, addend: 0x0, symName: __ZN7sc_core8sc_startEiNS_12sc_time_unitENS_20sc_starvation_policyE, symObjAddr: 0x584, symBinAddr: 0x100001E40, symSize: 0x50 }
  - { offsetInCU: 0xA96D, offset: 0xA96D, size: 0x8, addend: 0x0, symName: __ZN7sc_core22sc_get_curr_simcontextEv, symObjAddr: 0x7778, symBinAddr: 0x100009034, symSize: 0x98 }
  - { offsetInCU: 0x14AE6, offset: 0x14AE6, size: 0x8, addend: 0x0, symName: __ZN5sc_dt15sc_io_show_baseERNSt3__113basic_ostreamIcNS0_11char_traitsIcEEEE, symObjAddr: 0x7B98, symBinAddr: 0x100009454, symSize: 0x3C }
  - { offsetInCU: 0x14D37, offset: 0x14D37, size: 0x8, addend: 0x0, symName: __ZN5sc_dteqERKNS_12sc_uint_baseES2_, symObjAddr: 0x7550, symBinAddr: 0x100008E0C, symSize: 0x30 }
  - { offsetInCU: 0x14D74, offset: 0x14D74, size: 0x8, addend: 0x0, symName: __ZN5sc_dtlsERNSt3__113basic_ostreamIcNS0_11char_traitsIcEEEERKNS_12sc_uint_baseE, symObjAddr: 0x79D0, symBinAddr: 0x10000928C, symSize: 0x30 }
  - { offsetInCU: 0x14DB1, offset: 0x14DB1, size: 0x8, addend: 0x0, symName: __ZN5sc_dt10sc_io_baseERNSt3__113basic_ostreamIcNS0_11char_traitsIcEEEENS_9sc_numrepE, symObjAddr: 0x7AE8, symBinAddr: 0x1000093A4, symSize: 0xB0 }
  - { offsetInCU: 0x2D3AE, offset: 0x2D3AE, size: 0x8, addend: 0x0, symName: __ZNSt3__124__put_character_sequenceB8ue170006IcNS_11char_traitsIcEEEERNS_13basic_ostreamIT_T0_EES7_PKS4_m, symObjAddr: 0x7BD4, symBinAddr: 0x100009490, symSize: 0x1EC }
  - { offsetInCU: 0x2ED3A, offset: 0x2ED3A, size: 0x8, addend: 0x0, symName: __ZNSt3__112__to_addressB8ue170006IPN7sc_core15sc_trace_paramsEEEPT_S5_, symObjAddr: 0x16C8, symBinAddr: 0x100002F84, symSize: 0x14 }
  - { offsetInCU: 0x2ED6F, offset: 0x2ED6F, size: 0x8, addend: 0x0, symName: __ZNSt3__119__libcpp_deallocateB8ue170006EPvmm, symObjAddr: 0x1778, symBinAddr: 0x100003034, symSize: 0x30 }
  - { offsetInCU: 0x2EDB8, offset: 0x2EDB8, size: 0x8, addend: 0x0, symName: __ZNSt3__127__do_deallocate_handle_sizeB8ue170006IJEEEvPvmDpT_, symObjAddr: 0x17A8, symBinAddr: 0x100003064, symSize: 0x28 }
  - { offsetInCU: 0x2EDF8, offset: 0x2EDF8, size: 0x8, addend: 0x0, symName: __ZNSt3__124__libcpp_operator_deleteB8ue170006IJPvEEEvDpT_, symObjAddr: 0x17D0, symBinAddr: 0x10000308C, symSize: 0x24 }
  - { offsetInCU: 0x2EE2E, offset: 0x2EE2E, size: 0x8, addend: 0x0, symName: __ZNSt3__112__to_addressB8ue170006IPN7sc_core18sc_signal_inout_ifIN5sc_dt7sc_uintILi32EEEEEEEPT_S9_, symObjAddr: 0x1CD0, symBinAddr: 0x10000358C, symSize: 0x14 }
  - { offsetInCU: 0x2EE62, offset: 0x2EE62, size: 0x8, addend: 0x0, symName: __ZNSt3__13maxB8ue170006ImEERKT_S3_S3_, symObjAddr: 0x24EC, symBinAddr: 0x100003DA8, symSize: 0x2C }
  - { offsetInCU: 0x2EEA5, offset: 0x2EEA5, size: 0x8, addend: 0x0, symName: __ZNSt3__13minB8ue170006ImEERKT_S3_S3_, symObjAddr: 0x2518, symBinAddr: 0x100003DD4, symSize: 0x2C }
  - { offsetInCU: 0x2F0F3, offset: 0x2F0F3, size: 0x8, addend: 0x0, symName: __ZNSt3__13minB8ue170006ImNS_6__lessIvvEEEERKT_S5_S5_T0_, symObjAddr: 0x25A4, symBinAddr: 0x100003E60, symSize: 0x54 }
  - { offsetInCU: 0x2F195, offset: 0x2F195, size: 0x8, addend: 0x0, symName: __ZNSt3__120__throw_length_errorB8ue170006EPKc, symObjAddr: 0x2680, symBinAddr: 0x100003F3C, symSize: 0x64 }
  - { offsetInCU: 0x2F1BF, offset: 0x2F1BF, size: 0x8, addend: 0x0, symName: __ZNSt3__13maxB8ue170006ImNS_6__lessIvvEEEERKT_S5_S5_T0_, symObjAddr: 0x2764, symBinAddr: 0x100004020, symSize: 0x54 }
  - { offsetInCU: 0x2F219, offset: 0x2F219, size: 0x8, addend: 0x0, symName: __ZNSt3__119__allocate_at_leastB8ue170006INS_9allocatorIPN7sc_core18sc_signal_inout_ifIN5sc_dt7sc_uintILi32EEEEEEEEENS_19__allocation_resultINS_16allocator_traitsIT_E7pointerEEERSC_m, symObjAddr: 0x28C8, symBinAddr: 0x100004184, symSize: 0x40 }
  - { offsetInCU: 0x2F25C, offset: 0x2F25C, size: 0x8, addend: 0x0, symName: __ZNSt3__117__libcpp_allocateB8ue170006Emm, symObjAddr: 0x2A68, symBinAddr: 0x100004324, symSize: 0x28 }
  - { offsetInCU: 0x2F299, offset: 0x2F299, size: 0x8, addend: 0x0, symName: __ZNSt3__121__libcpp_operator_newB8ue170006IJmEEEPvDpT_, symObjAddr: 0x2A90, symBinAddr: 0x10000434C, symSize: 0x24 }
  - { offsetInCU: 0x2F2D2, offset: 0x2F2D2, size: 0x8, addend: 0x0, symName: __ZNSt3__142__uninitialized_allocator_move_if_noexceptB8ue170006INS_9allocatorIPN7sc_core18sc_signal_inout_ifIN5sc_dt7sc_uintILi32EEEEEEENS_16reverse_iteratorIPS8_EESC_S8_vEET1_RT_T0_SG_SD_, symObjAddr: 0x2B18, symBinAddr: 0x1000043D4, symSize: 0x78 }
  - { offsetInCU: 0x2F351, offset: 0x2F351, size: 0x8, addend: 0x0, symName: __ZNSt3__14swapB8ue170006IPPN7sc_core18sc_signal_inout_ifIN5sc_dt7sc_uintILi32EEEEEEENS_9enable_ifIXaasr21is_move_constructibleIT_EE5valuesr18is_move_assignableISA_EE5valueEvE4typeERSA_SD_, symObjAddr: 0x2BDC, symBinAddr: 0x100004498, symSize: 0x3C }
  - { offsetInCU: 0x2F3A1, offset: 0x2F3A1, size: 0x8, addend: 0x0, symName: __ZNSt3__14moveB8ue170006INS_16reverse_iteratorIPPN7sc_core18sc_signal_inout_ifIN5sc_dt7sc_uintILi32EEEEEEESA_EET0_T_SC_SB_, symObjAddr: 0x2CC4, symBinAddr: 0x100004580, symSize: 0x78 }
  - { offsetInCU: 0x2F3FB, offset: 0x2F3FB, size: 0x8, addend: 0x0, symName: __ZNSt3__16__moveB8ue170006INS_17_ClassicAlgPolicyENS_16reverse_iteratorIPPN7sc_core18sc_signal_inout_ifIN5sc_dt7sc_uintILi32EEEEEEESB_SB_EENS_4pairIT0_T2_EESD_T1_SE_, symObjAddr: 0x2D3C, symBinAddr: 0x1000045F8, symSize: 0x64 }
  - { offsetInCU: 0x2F467, offset: 0x2F467, size: 0x8, addend: 0x0, symName: __ZNSt3__123__dispatch_copy_or_moveB8ue170006INS_17_ClassicAlgPolicyENS_11__move_loopIS1_EENS_14__move_trivialENS_16reverse_iteratorIPPN7sc_core18sc_signal_inout_ifIN5sc_dt7sc_uintILi32EEEEEEESE_SE_EENS_4pairIT2_T4_EESG_T3_SH_, symObjAddr: 0x2DA0, symBinAddr: 0x10000465C, symSize: 0x64 }
  - { offsetInCU: 0x2F4E5, offset: 0x2F4E5, size: 0x8, addend: 0x0, symName: __ZNSt3__121__unwrap_and_dispatchB8ue170006INS_10__overloadINS_11__move_loopINS_17_ClassicAlgPolicyEEENS_14__move_trivialEEENS_16reverse_iteratorIPPN7sc_core18sc_signal_inout_ifIN5sc_dt7sc_uintILi32EEEEEEESG_SG_Li0EEENS_4pairIT0_T2_EESI_T1_SJ_, symObjAddr: 0x2E04, symBinAddr: 0x1000046C0, symSize: 0x12C }
  - { offsetInCU: 0x2F575, offset: 0x2F575, size: 0x8, addend: 0x0, symName: __ZNSt3__114__unwrap_rangeB8ue170006INS_16reverse_iteratorIPPN7sc_core18sc_signal_inout_ifIN5sc_dt7sc_uintILi32EEEEEEESA_EENS_4pairIT0_SC_EET_SE_, symObjAddr: 0x2F30, symBinAddr: 0x1000047EC, symSize: 0x84 }
  - { offsetInCU: 0x2F72F, offset: 0x2F72F, size: 0x8, addend: 0x0, symName: __ZNSt3__113__unwrap_iterB8ue170006INS_16reverse_iteratorIPPN7sc_core18sc_signal_inout_ifIN5sc_dt7sc_uintILi32EEEEEEENS_18__unwrap_iter_implISA_Lb0EEELi0EEEDTclsrT0_8__unwrapclsr3stdE7declvalIT_EEEESE_, symObjAddr: 0x3054, symBinAddr: 0x100004910, symSize: 0x44 }
  - { offsetInCU: 0x2F773, offset: 0x2F773, size: 0x8, addend: 0x0, symName: __ZNSt3__19make_pairB8ue170006INS_16reverse_iteratorIPPN7sc_core18sc_signal_inout_ifIN5sc_dt7sc_uintILi32EEEEEEESA_EENS_4pairINS_18__unwrap_ref_decayIT_E4typeENSC_IT0_E4typeEEEOSD_OSG_, symObjAddr: 0x3098, symBinAddr: 0x100004954, symSize: 0x38 }
  - { offsetInCU: 0x2F7C2, offset: 0x2F7C2, size: 0x8, addend: 0x0, symName: __ZNSt3__114__rewrap_rangeB8ue170006INS_16reverse_iteratorIPPN7sc_core18sc_signal_inout_ifIN5sc_dt7sc_uintILi32EEEEEEESA_EET_SB_T0_, symObjAddr: 0x30D0, symBinAddr: 0x10000498C, symSize: 0x5C }
  - { offsetInCU: 0x2F80E, offset: 0x2F80E, size: 0x8, addend: 0x0, symName: __ZNSt3__113__rewrap_iterB8ue170006INS_16reverse_iteratorIPPN7sc_core18sc_signal_inout_ifIN5sc_dt7sc_uintILi32EEEEEEESA_NS_18__unwrap_iter_implISA_Lb0EEEEET_SD_T0_, symObjAddr: 0x312C, symBinAddr: 0x1000049E8, symSize: 0x74 }
  - { offsetInCU: 0x2F863, offset: 0x2F863, size: 0x8, addend: 0x0, symName: __ZNSt3__1neB8ue170006IPPN7sc_core18sc_signal_inout_ifIN5sc_dt7sc_uintILi32EEEEES8_EEbRKNS_16reverse_iteratorIT_EERKNS9_IT0_EE, symObjAddr: 0x31A0, symBinAddr: 0x100004A5C, symSize: 0x48 }
  - { offsetInCU: 0x2F995, offset: 0x2F995, size: 0x8, addend: 0x0, symName: __ZNSt3__112__to_addressB8ue170006IPN7sc_core15sc_signal_in_ifIN5sc_dt7sc_uintILi32EEEEEEEPT_S9_, symObjAddr: 0x489C, symBinAddr: 0x100006158, symSize: 0x14 }
  - { offsetInCU: 0x2F9C9, offset: 0x2F9C9, size: 0x8, addend: 0x0, symName: __ZNSt3__119__allocate_at_leastB8ue170006INS_9allocatorIPN7sc_core15sc_signal_in_ifIN5sc_dt7sc_uintILi32EEEEEEEEENS_19__allocation_resultINS_16allocator_traitsIT_E7pointerEEERSC_m, symObjAddr: 0x520C, symBinAddr: 0x100006AC8, symSize: 0x40 }
  - { offsetInCU: 0x2FA0C, offset: 0x2FA0C, size: 0x8, addend: 0x0, symName: __ZNSt3__142__uninitialized_allocator_move_if_noexceptB8ue170006INS_9allocatorIPN7sc_core15sc_signal_in_ifIN5sc_dt7sc_uintILi32EEEEEEENS_16reverse_iteratorIPS8_EESC_S8_vEET1_RT_T0_SG_SD_, symObjAddr: 0x53DC, symBinAddr: 0x100006C98, symSize: 0x78 }
  - { offsetInCU: 0x2FA8B, offset: 0x2FA8B, size: 0x8, addend: 0x0, symName: __ZNSt3__14swapB8ue170006IPPN7sc_core15sc_signal_in_ifIN5sc_dt7sc_uintILi32EEEEEEENS_9enable_ifIXaasr21is_move_constructibleIT_EE5valuesr18is_move_assignableISA_EE5valueEvE4typeERSA_SD_, symObjAddr: 0x54A0, symBinAddr: 0x100006D5C, symSize: 0x3C }
  - { offsetInCU: 0x2FADB, offset: 0x2FADB, size: 0x8, addend: 0x0, symName: __ZNSt3__14moveB8ue170006INS_16reverse_iteratorIPPN7sc_core15sc_signal_in_ifIN5sc_dt7sc_uintILi32EEEEEEESA_EET0_T_SC_SB_, symObjAddr: 0x5588, symBinAddr: 0x100006E44, symSize: 0x78 }
  - { offsetInCU: 0x2FB35, offset: 0x2FB35, size: 0x8, addend: 0x0, symName: __ZNSt3__16__moveB8ue170006INS_17_ClassicAlgPolicyENS_16reverse_iteratorIPPN7sc_core15sc_signal_in_ifIN5sc_dt7sc_uintILi32EEEEEEESB_SB_EENS_4pairIT0_T2_EESD_T1_SE_, symObjAddr: 0x5600, symBinAddr: 0x100006EBC, symSize: 0x64 }
  - { offsetInCU: 0x2FBA1, offset: 0x2FBA1, size: 0x8, addend: 0x0, symName: __ZNSt3__123__dispatch_copy_or_moveB8ue170006INS_17_ClassicAlgPolicyENS_11__move_loopIS1_EENS_14__move_trivialENS_16reverse_iteratorIPPN7sc_core15sc_signal_in_ifIN5sc_dt7sc_uintILi32EEEEEEESE_SE_EENS_4pairIT2_T4_EESG_T3_SH_, symObjAddr: 0x5664, symBinAddr: 0x100006F20, symSize: 0x64 }
  - { offsetInCU: 0x2FC1F, offset: 0x2FC1F, size: 0x8, addend: 0x0, symName: __ZNSt3__121__unwrap_and_dispatchB8ue170006INS_10__overloadINS_11__move_loopINS_17_ClassicAlgPolicyEEENS_14__move_trivialEEENS_16reverse_iteratorIPPN7sc_core15sc_signal_in_ifIN5sc_dt7sc_uintILi32EEEEEEESG_SG_Li0EEENS_4pairIT0_T2_EESI_T1_SJ_, symObjAddr: 0x56C8, symBinAddr: 0x100006F84, symSize: 0x12C }
  - { offsetInCU: 0x2FCAF, offset: 0x2FCAF, size: 0x8, addend: 0x0, symName: __ZNSt3__114__unwrap_rangeB8ue170006INS_16reverse_iteratorIPPN7sc_core15sc_signal_in_ifIN5sc_dt7sc_uintILi32EEEEEEESA_EENS_4pairIT0_SC_EET_SE_, symObjAddr: 0x57F4, symBinAddr: 0x1000070B0, symSize: 0x84 }
  - { offsetInCU: 0x2FDCF, offset: 0x2FDCF, size: 0x8, addend: 0x0, symName: __ZNSt3__113__unwrap_iterB8ue170006INS_16reverse_iteratorIPPN7sc_core15sc_signal_in_ifIN5sc_dt7sc_uintILi32EEEEEEENS_18__unwrap_iter_implISA_Lb0EEELi0EEEDTclsrT0_8__unwrapclsr3stdE7declvalIT_EEEESE_, symObjAddr: 0x5918, symBinAddr: 0x1000071D4, symSize: 0x44 }
  - { offsetInCU: 0x2FE13, offset: 0x2FE13, size: 0x8, addend: 0x0, symName: __ZNSt3__19make_pairB8ue170006INS_16reverse_iteratorIPPN7sc_core15sc_signal_in_ifIN5sc_dt7sc_uintILi32EEEEEEESA_EENS_4pairINS_18__unwrap_ref_decayIT_E4typeENSC_IT0_E4typeEEEOSD_OSG_, symObjAddr: 0x595C, symBinAddr: 0x100007218, symSize: 0x38 }
  - { offsetInCU: 0x2FE62, offset: 0x2FE62, size: 0x8, addend: 0x0, symName: __ZNSt3__114__rewrap_rangeB8ue170006INS_16reverse_iteratorIPPN7sc_core15sc_signal_in_ifIN5sc_dt7sc_uintILi32EEEEEEESA_EET_SB_T0_, symObjAddr: 0x5994, symBinAddr: 0x100007250, symSize: 0x5C }
  - { offsetInCU: 0x2FEAE, offset: 0x2FEAE, size: 0x8, addend: 0x0, symName: __ZNSt3__113__rewrap_iterB8ue170006INS_16reverse_iteratorIPPN7sc_core15sc_signal_in_ifIN5sc_dt7sc_uintILi32EEEEEEESA_NS_18__unwrap_iter_implISA_Lb0EEEEET_SD_T0_, symObjAddr: 0x59F0, symBinAddr: 0x1000072AC, symSize: 0x74 }
  - { offsetInCU: 0x2FF03, offset: 0x2FF03, size: 0x8, addend: 0x0, symName: __ZNSt3__1neB8ue170006IPPN7sc_core15sc_signal_in_ifIN5sc_dt7sc_uintILi32EEEEES8_EEbRKNS_16reverse_iteratorIT_EERKNS9_IT0_EE, symObjAddr: 0x5A64, symBinAddr: 0x100007320, symSize: 0x48 }
  - { offsetInCU: 0x2FFBB, offset: 0x2FFBB, size: 0x8, addend: 0x0, symName: __ZNSt3__1eqB8ue170006IcNS_11char_traitsIcEENS_9allocatorIcEEEEbRKNS_12basic_stringIT_T0_T1_EEPKS6_, symObjAddr: 0x7000, symBinAddr: 0x1000088BC, symSize: 0xAC }
  - { offsetInCU: 0x30022, offset: 0x30022, size: 0x8, addend: 0x0, symName: __ZNSt3__118__constexpr_strlenB8ue170006EPKc, symObjAddr: 0x71BC, symBinAddr: 0x100008A78, symSize: 0x24 }
  - { offsetInCU: 0x3004E, offset: 0x3004E, size: 0x8, addend: 0x0, symName: __ZNSt3__1lsB8ue170006IcNS_11char_traitsIcEENS_9allocatorIcEEEERNS_13basic_ostreamIT_T0_EES9_RKNS_12basic_stringIS6_S7_T1_EE, symObjAddr: 0x7A9C, symBinAddr: 0x100009358, symSize: 0x4C }
  - { offsetInCU: 0x300A6, offset: 0x300A6, size: 0x8, addend: 0x0, symName: __ZNSt3__116__pad_and_outputB8ue170006IcNS_11char_traitsIcEEEENS_19ostreambuf_iteratorIT_T0_EES6_PKS4_S8_S8_RNS_8ios_baseES4_, symObjAddr: 0x7E04, symBinAddr: 0x1000096C0, symSize: 0x240 }
  - { offsetInCU: 0x30175, offset: 0x30175, size: 0x8, addend: 0x0, symName: __ZNSt3__19use_facetB8ue170006INS_5ctypeIcEEEERKT_RKNS_6localeE, symObjAddr: 0x8390, symBinAddr: 0x100009C4C, symSize: 0x2C }
  - { offsetInCU: 0x30643, offset: 0x30643, size: 0x8, addend: 0x0, symName: __ZNSt3__112__to_addressB8ue170006IKcEEPT_S3_, symObjAddr: 0x8428, symBinAddr: 0x100009CE4, symSize: 0x14 }
  - { offsetInCU: 0x306AA, offset: 0x306AA, size: 0x8, addend: 0x0, symName: __ZNSt3__1lsB8ue170006INS_11char_traitsIcEEEERNS_13basic_ostreamIcT_EES6_PKc, symObjAddr: 0x84F4, symBinAddr: 0x100009DB0, symSize: 0x48 }
  - { offsetInCU: 0x306F0, offset: 0x306F0, size: 0x8, addend: 0x0, symName: __ZNSt3__14endlB8ue170006IcNS_11char_traitsIcEEEERNS_13basic_ostreamIT_T0_EES7_, symObjAddr: 0x8590, symBinAddr: 0x100009E4C, symSize: 0x58 }
  - { offsetInCU: 0x30C8E, offset: 0x30C8E, size: 0x8, addend: 0x0, symName: __ZSt28__throw_bad_array_new_lengthB8ue170006v, symObjAddr: 0x2A34, symBinAddr: 0x1000042F0, symSize: 0x34 }
  - { offsetInCU: 0x3360F, offset: 0x3360F, size: 0x8, addend: 0x0, symName: __ZNSt3__16vectorIPN7sc_core18sc_signal_inout_ifIN5sc_dt7sc_uintILi32EEEEENS_9allocatorIS7_EEE26__swap_out_circular_bufferERNS_14__split_bufferIS7_RS9_EE, symObjAddr: 0x2334, symBinAddr: 0x100003BF0, symSize: 0x110 }
  - { offsetInCU: 0x33932, offset: 0x33932, size: 0x8, addend: 0x0, symName: __ZNSt3__16vectorIPN7sc_core15sc_signal_in_ifIN5sc_dt7sc_uintILi32EEEEENS_9allocatorIS7_EEE26__swap_out_circular_bufferERNS_14__split_bufferIS7_RS9_EE, symObjAddr: 0x4EAC, symBinAddr: 0x100006768, symSize: 0x110 }
  - { offsetInCU: 0x36195, offset: 0x36195, size: 0x8, addend: 0x0, symName: _sc_main, symObjAddr: 0x0, symBinAddr: 0x1000018BC, symSize: 0x2E0 }
  - { offsetInCU: 0x362C1, offset: 0x362C1, size: 0x8, addend: 0x0, symName: __ZN7sc_core9sc_signalIbLNS_16sc_writer_policyE0EEC1Ev, symObjAddr: 0x2E0, symBinAddr: 0x100001B9C, symSize: 0xDC }
  - { offsetInCU: 0x362EB, offset: 0x362EB, size: 0x8, addend: 0x0, symName: __ZN7sc_core5sc_inIbEclERKNS_15sc_signal_in_ifIbEE, symObjAddr: 0x3BC, symBinAddr: 0x100001C78, symSize: 0x34 }
  - { offsetInCU: 0x36372, offset: 0x36372, size: 0x8, addend: 0x0, symName: __ZN7sc_core9sc_signalIN5sc_dt7sc_uintILi32EEELNS_16sc_writer_policyE0EEC1Ev, symObjAddr: 0x3F0, symBinAddr: 0x100001CAC, symSize: 0xF8 }
  - { offsetInCU: 0x3639C, offset: 0x3639C, size: 0x8, addend: 0x0, symName: __ZN7sc_core9sc_port_bINS_18sc_signal_inout_ifIN5sc_dt7sc_uintILi32EEEEEEclERS5_, symObjAddr: 0x4E8, symBinAddr: 0x100001DA4, symSize: 0x34 }
  - { offsetInCU: 0x363D1, offset: 0x363D1, size: 0x8, addend: 0x0, symName: __ZN7sc_core5sc_inIN5sc_dt7sc_uintILi32EEEEclERKNS_15sc_signal_in_ifIS3_EE, symObjAddr: 0x51C, symBinAddr: 0x100001DD8, symSize: 0x34 }
  - { offsetInCU: 0x36405, offset: 0x36405, size: 0x8, addend: 0x0, symName: __ZN7sc_core9sc_port_bINS_18sc_signal_inout_ifIbEEEclERS2_, symObjAddr: 0x550, symBinAddr: 0x100001E0C, symSize: 0x34 }
  - { offsetInCU: 0x3643A, offset: 0x3643A, size: 0x8, addend: 0x0, symName: __ZN7sc_core9sc_signalIN5sc_dt7sc_uintILi32EEELNS_16sc_writer_policyE0EED1Ev, symObjAddr: 0x5D4, symBinAddr: 0x100001E90, symSize: 0x3C }
  - { offsetInCU: 0x3658C, offset: 0x3658C, size: 0x8, addend: 0x0, symName: __ZN9testbenchD1Ev, symObjAddr: 0x610, symBinAddr: 0x100001ECC, symSize: 0x2C }
  - { offsetInCU: 0x36694, offset: 0x36694, size: 0x8, addend: 0x0, symName: __ZN5cacheD1Ev, symObjAddr: 0x63C, symBinAddr: 0x100001EF8, symSize: 0x2C }
  - { offsetInCU: 0x366C0, offset: 0x366C0, size: 0x8, addend: 0x0, symName: __ZN9testbenchD2Ev, symObjAddr: 0x668, symBinAddr: 0x100001F24, symSize: 0x74 }
  - { offsetInCU: 0x366EC, offset: 0x366EC, size: 0x8, addend: 0x0, symName: __ZThn104_N9testbenchD1Ev, symObjAddr: 0x6DC, symBinAddr: 0x100001F98, symSize: 0x1C }
  - { offsetInCU: 0x36702, offset: 0x36702, size: 0x8, addend: 0x0, symName: __ZN7sc_core6sc_outIbED1Ev, symObjAddr: 0x6F8, symBinAddr: 0x100001FB4, symSize: 0x2C }
  - { offsetInCU: 0x3672C, offset: 0x3672C, size: 0x8, addend: 0x0, symName: __ZN7sc_core6sc_outIN5sc_dt7sc_uintILi32EEEED1Ev, symObjAddr: 0x724, symBinAddr: 0x100001FE0, symSize: 0x2C }
  - { offsetInCU: 0x36756, offset: 0x36756, size: 0x8, addend: 0x0, symName: __ZN7sc_core5sc_inIbED1Ev, symObjAddr: 0x750, symBinAddr: 0x10000200C, symSize: 0x2C }
  - { offsetInCU: 0x36780, offset: 0x36780, size: 0x8, addend: 0x0, symName: __ZNK7sc_core9sc_module4kindEv, symObjAddr: 0x77C, symBinAddr: 0x100002038, symSize: 0x18 }
  - { offsetInCU: 0x367A6, offset: 0x367A6, size: 0x8, addend: 0x0, symName: __ZNK7sc_core9sc_object16get_child_eventsEv, symObjAddr: 0x794, symBinAddr: 0x100002050, symSize: 0x18 }
  - { offsetInCU: 0x367CC, offset: 0x367CC, size: 0x8, addend: 0x0, symName: __ZN9testbenchD0Ev, symObjAddr: 0x7AC, symBinAddr: 0x100002068, symSize: 0x30 }
  - { offsetInCU: 0x367F8, offset: 0x367F8, size: 0x8, addend: 0x0, symName: __ZThn104_N9testbenchD0Ev, symObjAddr: 0x7DC, symBinAddr: 0x100002098, symSize: 0x18 }
  - { offsetInCU: 0x3680E, offset: 0x3680E, size: 0x8, addend: 0x0, symName: __ZN7sc_core6sc_outIbED2Ev, symObjAddr: 0x7F4, symBinAddr: 0x1000020B0, symSize: 0x2C }
  - { offsetInCU: 0x36838, offset: 0x36838, size: 0x8, addend: 0x0, symName: __ZN7sc_core6sc_outIN5sc_dt7sc_uintILi32EEEED2Ev, symObjAddr: 0x820, symBinAddr: 0x1000020DC, symSize: 0x2C }
  - { offsetInCU: 0x36862, offset: 0x36862, size: 0x8, addend: 0x0, symName: __ZN7sc_core8sc_inoutIN5sc_dt7sc_uintILi32EEEED2Ev, symObjAddr: 0x84C, symBinAddr: 0x100002108, symSize: 0xB4 }
  - { offsetInCU: 0x3688E, offset: 0x3688E, size: 0x8, addend: 0x0, symName: __ZNK7sc_core8sc_inoutIN5sc_dt7sc_uintILi32EEEE13remove_tracesEv, symObjAddr: 0x900, symBinAddr: 0x1000021BC, symSize: 0xF4 }
  - { offsetInCU: 0x368D4, offset: 0x368D4, size: 0x8, addend: 0x0, symName: __ZN7sc_core7sc_portINS_18sc_signal_inout_ifIN5sc_dt7sc_uintILi32EEEEELi1ELNS_14sc_port_policyE0EED2Ev, symObjAddr: 0xA00, symBinAddr: 0x1000022BC, symSize: 0x2C }
  - { offsetInCU: 0x368FE, offset: 0x368FE, size: 0x8, addend: 0x0, symName: __ZNK7sc_core8sc_inoutIN5sc_dt7sc_uintILi32EEEE4kindEv, symObjAddr: 0xA2C, symBinAddr: 0x1000022E8, symSize: 0x18 }
  - { offsetInCU: 0x36924, offset: 0x36924, size: 0x8, addend: 0x0, symName: __ZNK7sc_core9sc_object17get_child_objectsEv, symObjAddr: 0xA44, symBinAddr: 0x100002300, symSize: 0x18 }
  - { offsetInCU: 0x3694A, offset: 0x3694A, size: 0x8, addend: 0x0, symName: __ZN7sc_core8sc_inoutIN5sc_dt7sc_uintILi32EEEED1Ev, symObjAddr: 0xA5C, symBinAddr: 0x100002318, symSize: 0x2C }
  - { offsetInCU: 0x36976, offset: 0x36976, size: 0x8, addend: 0x0, symName: __ZN7sc_core8sc_inoutIN5sc_dt7sc_uintILi32EEEED0Ev, symObjAddr: 0xA88, symBinAddr: 0x100002344, symSize: 0x30 }
  - { offsetInCU: 0x369A2, offset: 0x369A2, size: 0x8, addend: 0x0, symName: __ZN7sc_core9sc_port_bINS_18sc_signal_inout_ifIN5sc_dt7sc_uintILi32EEEEEE13get_interfaceEv, symObjAddr: 0xAB8, symBinAddr: 0x100002374, symSize: 0x50 }
  - { offsetInCU: 0x369C8, offset: 0x369C8, size: 0x8, addend: 0x0, symName: __ZNK7sc_core9sc_port_bINS_18sc_signal_inout_ifIN5sc_dt7sc_uintILi32EEEEEE13get_interfaceEv, symObjAddr: 0xB08, symBinAddr: 0x1000023C4, symSize: 0x50 }
  - { offsetInCU: 0x369EE, offset: 0x369EE, size: 0x8, addend: 0x0, symName: __ZNK7sc_core9sc_port_bINS_18sc_signal_inout_ifIN5sc_dt7sc_uintILi32EEEEEE18get_interface_typeEv, symObjAddr: 0xB58, symBinAddr: 0x100002414, symSize: 0x30 }
  - { offsetInCU: 0x36A16, offset: 0x36A16, size: 0x8, addend: 0x0, symName: __ZN7sc_core9sc_port_bINS_18sc_signal_inout_ifIN5sc_dt7sc_uintILi32EEEEEE5vbindERNS_12sc_interfaceE, symObjAddr: 0xB88, symBinAddr: 0x100002444, symSize: 0xBC }
  - { offsetInCU: 0x36A5C, offset: 0x36A5C, size: 0x8, addend: 0x0, symName: __ZN7sc_core9sc_port_bINS_18sc_signal_inout_ifIN5sc_dt7sc_uintILi32EEEEEE5vbindERNS_12sc_port_baseE, symObjAddr: 0xC44, symBinAddr: 0x100002500, symSize: 0xB0 }
  - { offsetInCU: 0x36AA2, offset: 0x36AA2, size: 0x8, addend: 0x0, symName: __ZN7sc_core9sc_port_bINS_18sc_signal_inout_ifIN5sc_dt7sc_uintILi32EEEEEE13add_interfaceEPNS_12sc_interfaceE, symObjAddr: 0xCF4, symBinAddr: 0x1000025B0, symSize: 0x160 }
  - { offsetInCU: 0x36B15, offset: 0x36B15, size: 0x8, addend: 0x0, symName: __ZNK7sc_core9sc_port_bINS_18sc_signal_inout_ifIN5sc_dt7sc_uintILi32EEEEEE15interface_countEv, symObjAddr: 0xE54, symBinAddr: 0x100002710, symSize: 0x24 }
  - { offsetInCU: 0x36B3D, offset: 0x36B3D, size: 0x8, addend: 0x0, symName: __ZN7sc_core8sc_inoutIN5sc_dt7sc_uintILi32EEEE18end_of_elaborationEv, symObjAddr: 0xE78, symBinAddr: 0x100002734, symSize: 0x194 }
  - { offsetInCU: 0x36BB0, offset: 0x36BB0, size: 0x8, addend: 0x0, symName: __ZNK7sc_core9sc_port_bINS_18sc_signal_inout_ifIN5sc_dt7sc_uintILi32EEEEEE14make_sensitiveEPNS_17sc_thread_processEPNS_15sc_event_finderE, symObjAddr: 0x100C, symBinAddr: 0x1000028C8, symSize: 0x114 }
  - { offsetInCU: 0x36C50, offset: 0x36C50, size: 0x8, addend: 0x0, symName: __ZNK7sc_core9sc_port_bINS_18sc_signal_inout_ifIN5sc_dt7sc_uintILi32EEEEEE14make_sensitiveEPNS_17sc_method_processEPNS_15sc_event_finderE, symObjAddr: 0x1120, symBinAddr: 0x1000029DC, symSize: 0x114 }
  - { offsetInCU: 0x36CF0, offset: 0x36CF0, size: 0x8, addend: 0x0, symName: __ZN7sc_core9sc_port_bINS_18sc_signal_inout_ifIN5sc_dt7sc_uintILi32EEEEEE4bindERS5_, symObjAddr: 0x1234, symBinAddr: 0x100002AF0, symSize: 0x38 }
  - { offsetInCU: 0x36D25, offset: 0x36D25, size: 0x8, addend: 0x0, symName: __ZN7sc_core9sc_port_bINS_18sc_signal_inout_ifIN5sc_dt7sc_uintILi32EEEEEE4bindERS6_, symObjAddr: 0x126C, symBinAddr: 0x100002B28, symSize: 0x2C }
  - { offsetInCU: 0x36D5A, offset: 0x36D5A, size: 0x8, addend: 0x0, symName: __ZNKSt3__16vectorIPN7sc_core15sc_trace_paramsENS_9allocatorIS3_EEE4sizeB8ue170006Ev, symObjAddr: 0x1298, symBinAddr: 0x100002B54, symSize: 0x28 }
  - { offsetInCU: 0x36D80, offset: 0x36D80, size: 0x8, addend: 0x0, symName: __ZNSt3__16vectorIPN7sc_core15sc_trace_paramsENS_9allocatorIS3_EEEixB8ue170006Em, symObjAddr: 0x12C0, symBinAddr: 0x100002B7C, symSize: 0x24 }
  - { offsetInCU: 0x36DB7, offset: 0x36DB7, size: 0x8, addend: 0x0, symName: __ZN7sc_core15sc_trace_paramsD1Ev, symObjAddr: 0x12E4, symBinAddr: 0x100002BA0, symSize: 0x2C }
  - { offsetInCU: 0x36DE3, offset: 0x36DE3, size: 0x8, addend: 0x0, symName: __ZNSt3__16vectorIPN7sc_core15sc_trace_paramsENS_9allocatorIS3_EEED1B8ue170006Ev, symObjAddr: 0x1310, symBinAddr: 0x100002BCC, symSize: 0x2C }
  - { offsetInCU: 0x36E0D, offset: 0x36E0D, size: 0x8, addend: 0x0, symName: __ZN7sc_core15sc_trace_paramsD2Ev, symObjAddr: 0x133C, symBinAddr: 0x100002BF8, symSize: 0x30 }
  - { offsetInCU: 0x36E39, offset: 0x36E39, size: 0x8, addend: 0x0, symName: __ZNSt3__16vectorIPN7sc_core15sc_trace_paramsENS_9allocatorIS3_EEED2B8ue170006Ev, symObjAddr: 0x136C, symBinAddr: 0x100002C28, symSize: 0x44 }
  - { offsetInCU: 0x36E63, offset: 0x36E63, size: 0x8, addend: 0x0, symName: __ZNSt3__16vectorIPN7sc_core15sc_trace_paramsENS_9allocatorIS3_EEE16__destroy_vectorC1B8ue170006ERS6_, symObjAddr: 0x13B0, symBinAddr: 0x100002C6C, symSize: 0x34 }
  - { offsetInCU: 0x36E9C, offset: 0x36E9C, size: 0x8, addend: 0x0, symName: __ZNSt3__16vectorIPN7sc_core15sc_trace_paramsENS_9allocatorIS3_EEE16__destroy_vectorclB8ue170006Ev, symObjAddr: 0x13E4, symBinAddr: 0x100002CA0, symSize: 0x90 }
  - { offsetInCU: 0x36EC2, offset: 0x36EC2, size: 0x8, addend: 0x0, symName: __ZNSt3__16vectorIPN7sc_core15sc_trace_paramsENS_9allocatorIS3_EEE16__destroy_vectorC2B8ue170006ERS6_, symObjAddr: 0x1474, symBinAddr: 0x100002D30, symSize: 0x20 }
  - { offsetInCU: 0x36EFB, offset: 0x36EFB, size: 0x8, addend: 0x0, symName: __ZNSt3__16vectorIPN7sc_core15sc_trace_paramsENS_9allocatorIS3_EEE7__clearB8ue170006Ev, symObjAddr: 0x1494, symBinAddr: 0x100002D50, symSize: 0x28 }
  - { offsetInCU: 0x36F21, offset: 0x36F21, size: 0x8, addend: 0x0, symName: __ZNKSt3__16vectorIPN7sc_core15sc_trace_paramsENS_9allocatorIS3_EEE17__annotate_deleteB8ue170006Ev, symObjAddr: 0x14BC, symBinAddr: 0x100002D78, symSize: 0xB8 }
  - { offsetInCU: 0x36F47, offset: 0x36F47, size: 0x8, addend: 0x0, symName: __ZNSt3__116allocator_traitsINS_9allocatorIPN7sc_core15sc_trace_paramsEEEE10deallocateB8ue170006ERS5_PS4_m, symObjAddr: 0x1574, symBinAddr: 0x100002E30, symSize: 0x34 }
  - { offsetInCU: 0x36F89, offset: 0x36F89, size: 0x8, addend: 0x0, symName: __ZNSt3__16vectorIPN7sc_core15sc_trace_paramsENS_9allocatorIS3_EEE7__allocB8ue170006Ev, symObjAddr: 0x15A8, symBinAddr: 0x100002E64, symSize: 0x28 }
  - { offsetInCU: 0x36FAF, offset: 0x36FAF, size: 0x8, addend: 0x0, symName: __ZNKSt3__16vectorIPN7sc_core15sc_trace_paramsENS_9allocatorIS3_EEE8capacityB8ue170006Ev, symObjAddr: 0x15D0, symBinAddr: 0x100002E8C, symSize: 0x40 }
  - { offsetInCU: 0x36FD5, offset: 0x36FD5, size: 0x8, addend: 0x0, symName: __ZNSt3__16vectorIPN7sc_core15sc_trace_paramsENS_9allocatorIS3_EEE22__base_destruct_at_endB8ue170006EPS3_, symObjAddr: 0x1610, symBinAddr: 0x100002ECC, symSize: 0x8C }
  - { offsetInCU: 0x37019, offset: 0x37019, size: 0x8, addend: 0x0, symName: __ZNSt3__116allocator_traitsINS_9allocatorIPN7sc_core15sc_trace_paramsEEEE7destroyB8ue170006IS4_vEEvRS5_PT_, symObjAddr: 0x169C, symBinAddr: 0x100002F58, symSize: 0x2C }
  - { offsetInCU: 0x37056, offset: 0x37056, size: 0x8, addend: 0x0, symName: __ZNSt3__19allocatorIPN7sc_core15sc_trace_paramsEE7destroyB8ue170006EPS3_, symObjAddr: 0x16DC, symBinAddr: 0x100002F98, symSize: 0x14 }
  - { offsetInCU: 0x3708A, offset: 0x3708A, size: 0x8, addend: 0x0, symName: __ZNKSt3__16vectorIPN7sc_core15sc_trace_paramsENS_9allocatorIS3_EEE31__annotate_contiguous_containerB8ue170006EPKvS8_S8_S8_, symObjAddr: 0x16F0, symBinAddr: 0x100002FAC, symSize: 0x20 }
  - { offsetInCU: 0x370E0, offset: 0x370E0, size: 0x8, addend: 0x0, symName: __ZNKSt3__16vectorIPN7sc_core15sc_trace_paramsENS_9allocatorIS3_EEE4dataB8ue170006Ev, symObjAddr: 0x1710, symBinAddr: 0x100002FCC, symSize: 0x28 }
  - { offsetInCU: 0x37106, offset: 0x37106, size: 0x8, addend: 0x0, symName: __ZNSt3__19allocatorIPN7sc_core15sc_trace_paramsEE10deallocateB8ue170006EPS3_m, symObjAddr: 0x1738, symBinAddr: 0x100002FF4, symSize: 0x40 }
  - { offsetInCU: 0x37148, offset: 0x37148, size: 0x8, addend: 0x0, symName: __ZNSt3__117__compressed_pairIPPN7sc_core15sc_trace_paramsENS_9allocatorIS3_EEE6secondB8ue170006Ev, symObjAddr: 0x17F4, symBinAddr: 0x1000030B0, symSize: 0x24 }
  - { offsetInCU: 0x3716E, offset: 0x3716E, size: 0x8, addend: 0x0, symName: __ZNSt3__122__compressed_pair_elemINS_9allocatorIPN7sc_core15sc_trace_paramsEEELi1ELb1EE5__getB8ue170006Ev, symObjAddr: 0x1818, symBinAddr: 0x1000030D4, symSize: 0x14 }
  - { offsetInCU: 0x37194, offset: 0x37194, size: 0x8, addend: 0x0, symName: __ZNKSt3__16vectorIPN7sc_core15sc_trace_paramsENS_9allocatorIS3_EEE9__end_capB8ue170006Ev, symObjAddr: 0x182C, symBinAddr: 0x1000030E8, symSize: 0x28 }
  - { offsetInCU: 0x371BA, offset: 0x371BA, size: 0x8, addend: 0x0, symName: __ZNKSt3__117__compressed_pairIPPN7sc_core15sc_trace_paramsENS_9allocatorIS3_EEE5firstB8ue170006Ev, symObjAddr: 0x1854, symBinAddr: 0x100003110, symSize: 0x24 }
  - { offsetInCU: 0x371E0, offset: 0x371E0, size: 0x8, addend: 0x0, symName: __ZNKSt3__122__compressed_pair_elemIPPN7sc_core15sc_trace_paramsELi0ELb0EE5__getB8ue170006Ev, symObjAddr: 0x1878, symBinAddr: 0x100003134, symSize: 0x14 }
  - { offsetInCU: 0x37206, offset: 0x37206, size: 0x8, addend: 0x0, symName: __ZN7sc_core9sc_port_bINS_18sc_signal_inout_ifIN5sc_dt7sc_uintILi32EEEEEED2Ev, symObjAddr: 0x188C, symBinAddr: 0x100003148, symSize: 0x48 }
  - { offsetInCU: 0x37230, offset: 0x37230, size: 0x8, addend: 0x0, symName: __ZNSt3__16vectorIPN7sc_core18sc_signal_inout_ifIN5sc_dt7sc_uintILi32EEEEENS_9allocatorIS7_EEED1B8ue170006Ev, symObjAddr: 0x18D4, symBinAddr: 0x100003190, symSize: 0x2C }
  - { offsetInCU: 0x3725A, offset: 0x3725A, size: 0x8, addend: 0x0, symName: __ZNK7sc_core12sc_port_base4kindEv, symObjAddr: 0x1900, symBinAddr: 0x1000031BC, symSize: 0x18 }
  - { offsetInCU: 0x37280, offset: 0x37280, size: 0x8, addend: 0x0, symName: __ZN7sc_core9sc_port_bINS_18sc_signal_inout_ifIN5sc_dt7sc_uintILi32EEEEEED1Ev, symObjAddr: 0x1918, symBinAddr: 0x1000031D4, symSize: 0x2C }
  - { offsetInCU: 0x372AA, offset: 0x372AA, size: 0x8, addend: 0x0, symName: __ZN7sc_core9sc_port_bINS_18sc_signal_inout_ifIN5sc_dt7sc_uintILi32EEEEEED0Ev, symObjAddr: 0x1944, symBinAddr: 0x100003200, symSize: 0x30 }
  - { offsetInCU: 0x372D4, offset: 0x372D4, size: 0x8, addend: 0x0, symName: __ZNSt3__16vectorIPN7sc_core18sc_signal_inout_ifIN5sc_dt7sc_uintILi32EEEEENS_9allocatorIS7_EEED2B8ue170006Ev, symObjAddr: 0x1974, symBinAddr: 0x100003230, symSize: 0x44 }
  - { offsetInCU: 0x372FE, offset: 0x372FE, size: 0x8, addend: 0x0, symName: __ZNSt3__16vectorIPN7sc_core18sc_signal_inout_ifIN5sc_dt7sc_uintILi32EEEEENS_9allocatorIS7_EEE16__destroy_vectorC1B8ue170006ERSA_, symObjAddr: 0x19B8, symBinAddr: 0x100003274, symSize: 0x34 }
  - { offsetInCU: 0x37337, offset: 0x37337, size: 0x8, addend: 0x0, symName: __ZNSt3__16vectorIPN7sc_core18sc_signal_inout_ifIN5sc_dt7sc_uintILi32EEEEENS_9allocatorIS7_EEE16__destroy_vectorclB8ue170006Ev, symObjAddr: 0x19EC, symBinAddr: 0x1000032A8, symSize: 0x90 }
  - { offsetInCU: 0x3735D, offset: 0x3735D, size: 0x8, addend: 0x0, symName: __ZNSt3__16vectorIPN7sc_core18sc_signal_inout_ifIN5sc_dt7sc_uintILi32EEEEENS_9allocatorIS7_EEE16__destroy_vectorC2B8ue170006ERSA_, symObjAddr: 0x1A7C, symBinAddr: 0x100003338, symSize: 0x20 }
  - { offsetInCU: 0x37396, offset: 0x37396, size: 0x8, addend: 0x0, symName: __ZNSt3__16vectorIPN7sc_core18sc_signal_inout_ifIN5sc_dt7sc_uintILi32EEEEENS_9allocatorIS7_EEE7__clearB8ue170006Ev, symObjAddr: 0x1A9C, symBinAddr: 0x100003358, symSize: 0x28 }
  - { offsetInCU: 0x373BC, offset: 0x373BC, size: 0x8, addend: 0x0, symName: __ZNKSt3__16vectorIPN7sc_core18sc_signal_inout_ifIN5sc_dt7sc_uintILi32EEEEENS_9allocatorIS7_EEE17__annotate_deleteB8ue170006Ev, symObjAddr: 0x1AC4, symBinAddr: 0x100003380, symSize: 0xB8 }
  - { offsetInCU: 0x373E2, offset: 0x373E2, size: 0x8, addend: 0x0, symName: __ZNSt3__116allocator_traitsINS_9allocatorIPN7sc_core18sc_signal_inout_ifIN5sc_dt7sc_uintILi32EEEEEEEE10deallocateB8ue170006ERS9_PS8_m, symObjAddr: 0x1B7C, symBinAddr: 0x100003438, symSize: 0x34 }
  - { offsetInCU: 0x37424, offset: 0x37424, size: 0x8, addend: 0x0, symName: __ZNSt3__16vectorIPN7sc_core18sc_signal_inout_ifIN5sc_dt7sc_uintILi32EEEEENS_9allocatorIS7_EEE7__allocB8ue170006Ev, symObjAddr: 0x1BB0, symBinAddr: 0x10000346C, symSize: 0x28 }
  - { offsetInCU: 0x3744A, offset: 0x3744A, size: 0x8, addend: 0x0, symName: __ZNKSt3__16vectorIPN7sc_core18sc_signal_inout_ifIN5sc_dt7sc_uintILi32EEEEENS_9allocatorIS7_EEE8capacityB8ue170006Ev, symObjAddr: 0x1BD8, symBinAddr: 0x100003494, symSize: 0x40 }
  - { offsetInCU: 0x37470, offset: 0x37470, size: 0x8, addend: 0x0, symName: __ZNSt3__16vectorIPN7sc_core18sc_signal_inout_ifIN5sc_dt7sc_uintILi32EEEEENS_9allocatorIS7_EEE22__base_destruct_at_endB8ue170006EPS7_, symObjAddr: 0x1C18, symBinAddr: 0x1000034D4, symSize: 0x8C }
  - { offsetInCU: 0x374B4, offset: 0x374B4, size: 0x8, addend: 0x0, symName: __ZNSt3__116allocator_traitsINS_9allocatorIPN7sc_core18sc_signal_inout_ifIN5sc_dt7sc_uintILi32EEEEEEEE7destroyB8ue170006IS8_vEEvRS9_PT_, symObjAddr: 0x1CA4, symBinAddr: 0x100003560, symSize: 0x2C }
  - { offsetInCU: 0x374F1, offset: 0x374F1, size: 0x8, addend: 0x0, symName: __ZNSt3__19allocatorIPN7sc_core18sc_signal_inout_ifIN5sc_dt7sc_uintILi32EEEEEE7destroyB8ue170006EPS7_, symObjAddr: 0x1CE4, symBinAddr: 0x1000035A0, symSize: 0x14 }
  - { offsetInCU: 0x37525, offset: 0x37525, size: 0x8, addend: 0x0, symName: __ZNKSt3__16vectorIPN7sc_core18sc_signal_inout_ifIN5sc_dt7sc_uintILi32EEEEENS_9allocatorIS7_EEE31__annotate_contiguous_containerB8ue170006EPKvSC_SC_SC_, symObjAddr: 0x1CF8, symBinAddr: 0x1000035B4, symSize: 0x20 }
  - { offsetInCU: 0x3757B, offset: 0x3757B, size: 0x8, addend: 0x0, symName: __ZNKSt3__16vectorIPN7sc_core18sc_signal_inout_ifIN5sc_dt7sc_uintILi32EEEEENS_9allocatorIS7_EEE4dataB8ue170006Ev, symObjAddr: 0x1D18, symBinAddr: 0x1000035D4, symSize: 0x28 }
  - { offsetInCU: 0x375A1, offset: 0x375A1, size: 0x8, addend: 0x0, symName: __ZNKSt3__16vectorIPN7sc_core18sc_signal_inout_ifIN5sc_dt7sc_uintILi32EEEEENS_9allocatorIS7_EEE4sizeB8ue170006Ev, symObjAddr: 0x1D40, symBinAddr: 0x1000035FC, symSize: 0x28 }
  - { offsetInCU: 0x375C7, offset: 0x375C7, size: 0x8, addend: 0x0, symName: __ZNSt3__19allocatorIPN7sc_core18sc_signal_inout_ifIN5sc_dt7sc_uintILi32EEEEEE10deallocateB8ue170006EPS7_m, symObjAddr: 0x1D68, symBinAddr: 0x100003624, symSize: 0x40 }
  - { offsetInCU: 0x37609, offset: 0x37609, size: 0x8, addend: 0x0, symName: __ZNSt3__117__compressed_pairIPPN7sc_core18sc_signal_inout_ifIN5sc_dt7sc_uintILi32EEEEENS_9allocatorIS7_EEE6secondB8ue170006Ev, symObjAddr: 0x1DA8, symBinAddr: 0x100003664, symSize: 0x24 }
  - { offsetInCU: 0x3762F, offset: 0x3762F, size: 0x8, addend: 0x0, symName: __ZNSt3__122__compressed_pair_elemINS_9allocatorIPN7sc_core18sc_signal_inout_ifIN5sc_dt7sc_uintILi32EEEEEEELi1ELb1EE5__getB8ue170006Ev, symObjAddr: 0x1DCC, symBinAddr: 0x100003688, symSize: 0x14 }
  - { offsetInCU: 0x37655, offset: 0x37655, size: 0x8, addend: 0x0, symName: __ZNKSt3__16vectorIPN7sc_core18sc_signal_inout_ifIN5sc_dt7sc_uintILi32EEEEENS_9allocatorIS7_EEE9__end_capB8ue170006Ev, symObjAddr: 0x1DE0, symBinAddr: 0x10000369C, symSize: 0x28 }
  - { offsetInCU: 0x3767B, offset: 0x3767B, size: 0x8, addend: 0x0, symName: __ZNKSt3__117__compressed_pairIPPN7sc_core18sc_signal_inout_ifIN5sc_dt7sc_uintILi32EEEEENS_9allocatorIS7_EEE5firstB8ue170006Ev, symObjAddr: 0x1E08, symBinAddr: 0x1000036C4, symSize: 0x24 }
  - { offsetInCU: 0x376A1, offset: 0x376A1, size: 0x8, addend: 0x0, symName: __ZNKSt3__122__compressed_pair_elemIPPN7sc_core18sc_signal_inout_ifIN5sc_dt7sc_uintILi32EEEEELi0ELb0EE5__getB8ue170006Ev, symObjAddr: 0x1E2C, symBinAddr: 0x1000036E8, symSize: 0x14 }
  - { offsetInCU: 0x376C7, offset: 0x376C7, size: 0x8, addend: 0x0, symName: __ZNSt3__110type_indexC1B8ue170006ERKSt9type_info, symObjAddr: 0x1E40, symBinAddr: 0x1000036FC, symSize: 0x34 }
  - { offsetInCU: 0x376FF, offset: 0x376FF, size: 0x8, addend: 0x0, symName: __ZNSt3__110type_indexC2B8ue170006ERKSt9type_info, symObjAddr: 0x1E74, symBinAddr: 0x100003730, symSize: 0x20 }
  - { offsetInCU: 0x37737, offset: 0x37737, size: 0x8, addend: 0x0, symName: __ZNK7sc_core9sc_port_bINS_18sc_signal_inout_ifIN5sc_dt7sc_uintILi32EEEEEE4sizeEv, symObjAddr: 0x1E94, symBinAddr: 0x100003750, symSize: 0x28 }
  - { offsetInCU: 0x3775D, offset: 0x3775D, size: 0x8, addend: 0x0, symName: __ZNSt3__16vectorIPN7sc_core18sc_signal_inout_ifIN5sc_dt7sc_uintILi32EEEEENS_9allocatorIS7_EEEixB8ue170006Em, symObjAddr: 0x1EBC, symBinAddr: 0x100003778, symSize: 0x24 }
  - { offsetInCU: 0x37794, offset: 0x37794, size: 0x8, addend: 0x0, symName: __ZNSt3__16vectorIPN7sc_core18sc_signal_inout_ifIN5sc_dt7sc_uintILi32EEEEENS_9allocatorIS7_EEE9push_backB8ue170006ERKS7_, symObjAddr: 0x1EE0, symBinAddr: 0x10000379C, symSize: 0x6C }
  - { offsetInCU: 0x377CB, offset: 0x377CB, size: 0x8, addend: 0x0, symName: __ZNSt3__16vectorIPN7sc_core18sc_signal_inout_ifIN5sc_dt7sc_uintILi32EEEEENS_9allocatorIS7_EEE9__end_capB8ue170006Ev, symObjAddr: 0x1F4C, symBinAddr: 0x100003808, symSize: 0x28 }
  - { offsetInCU: 0x377F1, offset: 0x377F1, size: 0x8, addend: 0x0, symName: __ZNSt3__16vectorIPN7sc_core18sc_signal_inout_ifIN5sc_dt7sc_uintILi32EEEEENS_9allocatorIS7_EEE22__construct_one_at_endB8ue170006IJRKS7_EEEvDpOT_, symObjAddr: 0x1F74, symBinAddr: 0x100003830, symSize: 0x90 }
  - { offsetInCU: 0x37840, offset: 0x37840, size: 0x8, addend: 0x0, symName: __ZNSt3__16vectorIPN7sc_core18sc_signal_inout_ifIN5sc_dt7sc_uintILi32EEEEENS_9allocatorIS7_EEE21__push_back_slow_pathIRKS7_EEvOT_, symObjAddr: 0x2004, symBinAddr: 0x1000038C0, symSize: 0xD8 }
  - { offsetInCU: 0x3789E, offset: 0x3789E, size: 0x8, addend: 0x0, symName: __ZNSt3__117__compressed_pairIPPN7sc_core18sc_signal_inout_ifIN5sc_dt7sc_uintILi32EEEEENS_9allocatorIS7_EEE5firstB8ue170006Ev, symObjAddr: 0x20DC, symBinAddr: 0x100003998, symSize: 0x24 }
  - { offsetInCU: 0x378C4, offset: 0x378C4, size: 0x8, addend: 0x0, symName: __ZNSt3__122__compressed_pair_elemIPPN7sc_core18sc_signal_inout_ifIN5sc_dt7sc_uintILi32EEEEELi0ELb0EE5__getB8ue170006Ev, symObjAddr: 0x2100, symBinAddr: 0x1000039BC, symSize: 0x14 }
  - { offsetInCU: 0x37905, offset: 0x37905, size: 0x8, addend: 0x0, symName: __ZNSt3__16vectorIPN7sc_core18sc_signal_inout_ifIN5sc_dt7sc_uintILi32EEEEENS_9allocatorIS7_EEE21_ConstructTransactionC1B8ue170006ERSA_m, symObjAddr: 0x2114, symBinAddr: 0x1000039D0, symSize: 0x3C }
  - { offsetInCU: 0x3794D, offset: 0x3794D, size: 0x8, addend: 0x0, symName: __ZNSt3__116allocator_traitsINS_9allocatorIPN7sc_core18sc_signal_inout_ifIN5sc_dt7sc_uintILi32EEEEEEEE9constructB8ue170006IS8_JRKS8_EvEEvRS9_PT_DpOT0_, symObjAddr: 0x2150, symBinAddr: 0x100003A0C, symSize: 0x34 }
  - { offsetInCU: 0x379A4, offset: 0x379A4, size: 0x8, addend: 0x0, symName: __ZNSt3__16vectorIPN7sc_core18sc_signal_inout_ifIN5sc_dt7sc_uintILi32EEEEENS_9allocatorIS7_EEE21_ConstructTransactionD1B8ue170006Ev, symObjAddr: 0x2184, symBinAddr: 0x100003A40, symSize: 0x2C }
  - { offsetInCU: 0x379CE, offset: 0x379CE, size: 0x8, addend: 0x0, symName: __ZNSt3__16vectorIPN7sc_core18sc_signal_inout_ifIN5sc_dt7sc_uintILi32EEEEENS_9allocatorIS7_EEE21_ConstructTransactionC2B8ue170006ERSA_m, symObjAddr: 0x21B0, symBinAddr: 0x100003A6C, symSize: 0x44 }
  - { offsetInCU: 0x37A16, offset: 0x37A16, size: 0x8, addend: 0x0, symName: __ZNSt3__19allocatorIPN7sc_core18sc_signal_inout_ifIN5sc_dt7sc_uintILi32EEEEEE9constructB8ue170006IS7_JRKS7_EEEvPT_DpOT0_, symObjAddr: 0x21F4, symBinAddr: 0x100003AB0, symSize: 0x28 }
  - { offsetInCU: 0x37A6C, offset: 0x37A6C, size: 0x8, addend: 0x0, symName: __ZNSt3__16vectorIPN7sc_core18sc_signal_inout_ifIN5sc_dt7sc_uintILi32EEEEENS_9allocatorIS7_EEE21_ConstructTransactionD2B8ue170006Ev, symObjAddr: 0x221C, symBinAddr: 0x100003AD8, symSize: 0x20 }
  - { offsetInCU: 0x37A96, offset: 0x37A96, size: 0x8, addend: 0x0, symName: __ZNKSt3__16vectorIPN7sc_core18sc_signal_inout_ifIN5sc_dt7sc_uintILi32EEEEENS_9allocatorIS7_EEE11__recommendB8ue170006Em, symObjAddr: 0x223C, symBinAddr: 0x100003AF8, symSize: 0xB4 }
  - { offsetInCU: 0x37AEB, offset: 0x37AEB, size: 0x8, addend: 0x0, symName: __ZNSt3__114__split_bufferIPN7sc_core18sc_signal_inout_ifIN5sc_dt7sc_uintILi32EEEEERNS_9allocatorIS7_EEEC1EmmSA_, symObjAddr: 0x22F0, symBinAddr: 0x100003BAC, symSize: 0x44 }
  - { offsetInCU: 0x37B41, offset: 0x37B41, size: 0x8, addend: 0x0, symName: __ZNSt3__114__split_bufferIPN7sc_core18sc_signal_inout_ifIN5sc_dt7sc_uintILi32EEEEERNS_9allocatorIS7_EEED1Ev, symObjAddr: 0x2444, symBinAddr: 0x100003D00, symSize: 0x2C }
  - { offsetInCU: 0x37B6D, offset: 0x37B6D, size: 0x8, addend: 0x0, symName: __ZNKSt3__16vectorIPN7sc_core18sc_signal_inout_ifIN5sc_dt7sc_uintILi32EEEEENS_9allocatorIS7_EEE8max_sizeEv, symObjAddr: 0x2470, symBinAddr: 0x100003D2C, symSize: 0x60 }
  - { offsetInCU: 0x37B95, offset: 0x37B95, size: 0x8, addend: 0x0, symName: __ZNKSt3__16vectorIPN7sc_core18sc_signal_inout_ifIN5sc_dt7sc_uintILi32EEEEENS_9allocatorIS7_EEE20__throw_length_errorB8ue170006Ev, symObjAddr: 0x24D0, symBinAddr: 0x100003D8C, symSize: 0x1C }
  - { offsetInCU: 0x37BC6, offset: 0x37BC6, size: 0x8, addend: 0x0, symName: __ZNSt3__116allocator_traitsINS_9allocatorIPN7sc_core18sc_signal_inout_ifIN5sc_dt7sc_uintILi32EEEEEEEE8max_sizeB8ue170006IS9_vEEmRKS9_, symObjAddr: 0x2544, symBinAddr: 0x100003E00, symSize: 0x24 }
  - { offsetInCU: 0x37BF4, offset: 0x37BF4, size: 0x8, addend: 0x0, symName: __ZNKSt3__16vectorIPN7sc_core18sc_signal_inout_ifIN5sc_dt7sc_uintILi32EEEEENS_9allocatorIS7_EEE7__allocB8ue170006Ev, symObjAddr: 0x2568, symBinAddr: 0x100003E24, symSize: 0x28 }
  - { offsetInCU: 0x37C1A, offset: 0x37C1A, size: 0x8, addend: 0x0, symName: __ZNSt3__114numeric_limitsIlE3maxB8ue170006Ev, symObjAddr: 0x2590, symBinAddr: 0x100003E4C, symSize: 0x14 }
  - { offsetInCU: 0x37C38, offset: 0x37C38, size: 0x8, addend: 0x0, symName: __ZNKSt3__16__lessIvvEclB8ue170006ImmEEbRKT_RKT0_, symObjAddr: 0x25F8, symBinAddr: 0x100003EB4, symSize: 0x34 }
  - { offsetInCU: 0x37C8C, offset: 0x37C8C, size: 0x8, addend: 0x0, symName: __ZNKSt3__19allocatorIPN7sc_core18sc_signal_inout_ifIN5sc_dt7sc_uintILi32EEEEEE8max_sizeB8ue170006Ev, symObjAddr: 0x262C, symBinAddr: 0x100003EE8, symSize: 0x14 }
  - { offsetInCU: 0x37CB2, offset: 0x37CB2, size: 0x8, addend: 0x0, symName: __ZNKSt3__117__compressed_pairIPPN7sc_core18sc_signal_inout_ifIN5sc_dt7sc_uintILi32EEEEENS_9allocatorIS7_EEE6secondB8ue170006Ev, symObjAddr: 0x2640, symBinAddr: 0x100003EFC, symSize: 0x24 }
  - { offsetInCU: 0x37CD8, offset: 0x37CD8, size: 0x8, addend: 0x0, symName: __ZNKSt3__122__compressed_pair_elemINS_9allocatorIPN7sc_core18sc_signal_inout_ifIN5sc_dt7sc_uintILi32EEEEEEELi1ELb1EE5__getB8ue170006Ev, symObjAddr: 0x2664, symBinAddr: 0x100003F20, symSize: 0x14 }
  - { offsetInCU: 0x37CFE, offset: 0x37CFE, size: 0x8, addend: 0x0, symName: __ZNSt3__123__libcpp_numeric_limitsIlLb1EE3maxB8ue170006Ev, symObjAddr: 0x2678, symBinAddr: 0x100003F34, symSize: 0x8 }
  - { offsetInCU: 0x37D12, offset: 0x37D12, size: 0x8, addend: 0x0, symName: __ZNSt12length_errorC1B8ue170006EPKc, symObjAddr: 0x26E4, symBinAddr: 0x100003FA0, symSize: 0x34 }
  - { offsetInCU: 0x37D4A, offset: 0x37D4A, size: 0x8, addend: 0x0, symName: __ZNSt12length_errorC2B8ue170006EPKc, symObjAddr: 0x2718, symBinAddr: 0x100003FD4, symSize: 0x4C }
  - { offsetInCU: 0x37D82, offset: 0x37D82, size: 0x8, addend: 0x0, symName: __ZNSt3__114__split_bufferIPN7sc_core18sc_signal_inout_ifIN5sc_dt7sc_uintILi32EEEEERNS_9allocatorIS7_EEEC2EmmSA_, symObjAddr: 0x27B8, symBinAddr: 0x100004074, symSize: 0xD4 }
  - { offsetInCU: 0x37DFC, offset: 0x37DFC, size: 0x8, addend: 0x0, symName: __ZNSt3__117__compressed_pairIPPN7sc_core18sc_signal_inout_ifIN5sc_dt7sc_uintILi32EEEEERNS_9allocatorIS7_EEEC1B8ue170006IDnSB_EEOT_OT0_, symObjAddr: 0x288C, symBinAddr: 0x100004148, symSize: 0x3C }
  - { offsetInCU: 0x37E54, offset: 0x37E54, size: 0x8, addend: 0x0, symName: __ZNSt3__114__split_bufferIPN7sc_core18sc_signal_inout_ifIN5sc_dt7sc_uintILi32EEEEERNS_9allocatorIS7_EEE7__allocB8ue170006Ev, symObjAddr: 0x2908, symBinAddr: 0x1000041C4, symSize: 0x28 }
  - { offsetInCU: 0x37E7A, offset: 0x37E7A, size: 0x8, addend: 0x0, symName: __ZNSt3__114__split_bufferIPN7sc_core18sc_signal_inout_ifIN5sc_dt7sc_uintILi32EEEEERNS_9allocatorIS7_EEE9__end_capB8ue170006Ev, symObjAddr: 0x2930, symBinAddr: 0x1000041EC, symSize: 0x28 }
  - { offsetInCU: 0x37EA0, offset: 0x37EA0, size: 0x8, addend: 0x0, symName: __ZNSt3__117__compressed_pairIPPN7sc_core18sc_signal_inout_ifIN5sc_dt7sc_uintILi32EEEEERNS_9allocatorIS7_EEEC2B8ue170006IDnSB_EEOT_OT0_, symObjAddr: 0x2958, symBinAddr: 0x100004214, symSize: 0x48 }
  - { offsetInCU: 0x37EF8, offset: 0x37EF8, size: 0x8, addend: 0x0, symName: __ZNSt3__122__compressed_pair_elemIPPN7sc_core18sc_signal_inout_ifIN5sc_dt7sc_uintILi32EEEEELi0ELb0EEC2B8ue170006IDnvEEOT_, symObjAddr: 0x29A0, symBinAddr: 0x10000425C, symSize: 0x1C }
  - { offsetInCU: 0x37F3A, offset: 0x37F3A, size: 0x8, addend: 0x0, symName: __ZNSt3__122__compressed_pair_elemIRNS_9allocatorIPN7sc_core18sc_signal_inout_ifIN5sc_dt7sc_uintILi32EEEEEEELi1ELb0EEC2B8ue170006ISA_vEEOT_, symObjAddr: 0x29BC, symBinAddr: 0x100004278, symSize: 0x20 }
  - { offsetInCU: 0x37F7C, offset: 0x37F7C, size: 0x8, addend: 0x0, symName: __ZNSt3__19allocatorIPN7sc_core18sc_signal_inout_ifIN5sc_dt7sc_uintILi32EEEEEE8allocateB8ue170006Em, symObjAddr: 0x29DC, symBinAddr: 0x100004298, symSize: 0x58 }
  - { offsetInCU: 0x37FB0, offset: 0x37FB0, size: 0x8, addend: 0x0, symName: __ZNSt3__117__compressed_pairIPPN7sc_core18sc_signal_inout_ifIN5sc_dt7sc_uintILi32EEEEERNS_9allocatorIS7_EEE6secondB8ue170006Ev, symObjAddr: 0x2AB4, symBinAddr: 0x100004370, symSize: 0x28 }
  - { offsetInCU: 0x37FD6, offset: 0x37FD6, size: 0x8, addend: 0x0, symName: __ZNSt3__122__compressed_pair_elemIRNS_9allocatorIPN7sc_core18sc_signal_inout_ifIN5sc_dt7sc_uintILi32EEEEEEELi1ELb0EE5__getB8ue170006Ev, symObjAddr: 0x2ADC, symBinAddr: 0x100004398, symSize: 0x18 }
  - { offsetInCU: 0x37FFC, offset: 0x37FFC, size: 0x8, addend: 0x0, symName: __ZNSt3__117__compressed_pairIPPN7sc_core18sc_signal_inout_ifIN5sc_dt7sc_uintILi32EEEEERNS_9allocatorIS7_EEE5firstB8ue170006Ev, symObjAddr: 0x2AF4, symBinAddr: 0x1000043B0, symSize: 0x24 }
  - { offsetInCU: 0x38022, offset: 0x38022, size: 0x8, addend: 0x0, symName: __ZNSt3__116reverse_iteratorIPPN7sc_core18sc_signal_inout_ifIN5sc_dt7sc_uintILi32EEEEEEC1B8ue170006ES8_, symObjAddr: 0x2B90, symBinAddr: 0x10000444C, symSize: 0x34 }
  - { offsetInCU: 0x3805A, offset: 0x3805A, size: 0x8, addend: 0x0, symName: __ZNKSt3__116reverse_iteratorIPPN7sc_core18sc_signal_inout_ifIN5sc_dt7sc_uintILi32EEEEEE4baseB8ue170006Ev, symObjAddr: 0x2BC4, symBinAddr: 0x100004480, symSize: 0x18 }
  - { offsetInCU: 0x38080, offset: 0x38080, size: 0x8, addend: 0x0, symName: __ZNKSt3__16vectorIPN7sc_core18sc_signal_inout_ifIN5sc_dt7sc_uintILi32EEEEENS_9allocatorIS7_EEE14__annotate_newB8ue170006Em, symObjAddr: 0x2C18, symBinAddr: 0x1000044D4, symSize: 0xAC }
  - { offsetInCU: 0x380DB, offset: 0x380DB, size: 0x8, addend: 0x0, symName: __ZNKSt3__111__move_loopINS_17_ClassicAlgPolicyEEclB8ue170006INS_16reverse_iteratorIPPN7sc_core18sc_signal_inout_ifIN5sc_dt7sc_uintILi32EEEEEEESD_SD_EENS_4pairIT_T1_EESF_T0_SG_, symObjAddr: 0x2FB4, symBinAddr: 0x100004870, symSize: 0xA0 }
  - { offsetInCU: 0x3814C, offset: 0x3814C, size: 0x8, addend: 0x0, symName: __ZNSt3__18_IterOpsINS_17_ClassicAlgPolicyEE11__iter_moveB8ue170006IRNS_16reverse_iteratorIPPN7sc_core18sc_signal_inout_ifIN5sc_dt7sc_uintILi32EEEEEEEEENS_9enable_ifIXsr12is_referenceIDTdeclsr3stdE7declvalIRT_EEEEE5valueEDTclsr3stdE4movedeclsr3stdE7declvalISH_EEEEE4typeEOSG_, symObjAddr: 0x31E8, symBinAddr: 0x100004AA4, symSize: 0x28 }
  - { offsetInCU: 0x38178, offset: 0x38178, size: 0x8, addend: 0x0, symName: __ZNKSt3__116reverse_iteratorIPPN7sc_core18sc_signal_inout_ifIN5sc_dt7sc_uintILi32EEEEEEdeB8ue170006Ev, symObjAddr: 0x3210, symBinAddr: 0x100004ACC, symSize: 0x28 }
  - { offsetInCU: 0x381AC, offset: 0x381AC, size: 0x8, addend: 0x0, symName: __ZNSt3__116reverse_iteratorIPPN7sc_core18sc_signal_inout_ifIN5sc_dt7sc_uintILi32EEEEEEppB8ue170006Ev, symObjAddr: 0x3238, symBinAddr: 0x100004AF4, symSize: 0x20 }
  - { offsetInCU: 0x381D2, offset: 0x381D2, size: 0x8, addend: 0x0, symName: __ZNSt3__18_IterOpsINS_17_ClassicAlgPolicyEE25__validate_iter_referenceB8ue170006IRNS_16reverse_iteratorIPPN7sc_core18sc_signal_inout_ifIN5sc_dt7sc_uintILi32EEEEEEEEEvv, symObjAddr: 0x3258, symBinAddr: 0x100004B14, symSize: 0x4 }
  - { offsetInCU: 0x381F0, offset: 0x381F0, size: 0x8, addend: 0x0, symName: __ZNSt3__118__unwrap_iter_implINS_16reverse_iteratorIPPN7sc_core18sc_signal_inout_ifIN5sc_dt7sc_uintILi32EEEEEEELb0EE8__unwrapB8ue170006ESA_, symObjAddr: 0x325C, symBinAddr: 0x100004B18, symSize: 0x24 }
  - { offsetInCU: 0x38219, offset: 0x38219, size: 0x8, addend: 0x0, symName: __ZNSt3__14pairINS_16reverse_iteratorIPPN7sc_core18sc_signal_inout_ifIN5sc_dt7sc_uintILi32EEEEEEESA_EC1B8ue170006ISA_SA_LPv0EEEOT_OT0_, symObjAddr: 0x3280, symBinAddr: 0x100004B3C, symSize: 0x3C }
  - { offsetInCU: 0x38277, offset: 0x38277, size: 0x8, addend: 0x0, symName: __ZNSt3__14pairINS_16reverse_iteratorIPPN7sc_core18sc_signal_inout_ifIN5sc_dt7sc_uintILi32EEEEEEESA_EC2B8ue170006ISA_SA_LPv0EEEOT_OT0_, symObjAddr: 0x32BC, symBinAddr: 0x100004B78, symSize: 0x34 }
  - { offsetInCU: 0x382D5, offset: 0x382D5, size: 0x8, addend: 0x0, symName: __ZNSt3__118__unwrap_iter_implINS_16reverse_iteratorIPPN7sc_core18sc_signal_inout_ifIN5sc_dt7sc_uintILi32EEEEEEELb0EE8__rewrapB8ue170006ESA_SA_, symObjAddr: 0x32F0, symBinAddr: 0x100004BAC, symSize: 0x2C }
  - { offsetInCU: 0x38303, offset: 0x38303, size: 0x8, addend: 0x0, symName: __ZNSt3__116reverse_iteratorIPPN7sc_core18sc_signal_inout_ifIN5sc_dt7sc_uintILi32EEEEEEC2B8ue170006ES8_, symObjAddr: 0x331C, symBinAddr: 0x100004BD8, symSize: 0x28 }
  - { offsetInCU: 0x3833B, offset: 0x3833B, size: 0x8, addend: 0x0, symName: __ZNSt3__114__split_bufferIPN7sc_core18sc_signal_inout_ifIN5sc_dt7sc_uintILi32EEEEERNS_9allocatorIS7_EEED2Ev, symObjAddr: 0x3344, symBinAddr: 0x100004C00, symSize: 0x8C }
  - { offsetInCU: 0x38367, offset: 0x38367, size: 0x8, addend: 0x0, symName: __ZNSt3__114__split_bufferIPN7sc_core18sc_signal_inout_ifIN5sc_dt7sc_uintILi32EEEEERNS_9allocatorIS7_EEE5clearB8ue170006Ev, symObjAddr: 0x33D0, symBinAddr: 0x100004C8C, symSize: 0x28 }
  - { offsetInCU: 0x3838D, offset: 0x3838D, size: 0x8, addend: 0x0, symName: __ZNKSt3__114__split_bufferIPN7sc_core18sc_signal_inout_ifIN5sc_dt7sc_uintILi32EEEEERNS_9allocatorIS7_EEE8capacityB8ue170006Ev, symObjAddr: 0x33F8, symBinAddr: 0x100004CB4, symSize: 0x40 }
  - { offsetInCU: 0x383B3, offset: 0x383B3, size: 0x8, addend: 0x0, symName: __ZNSt3__114__split_bufferIPN7sc_core18sc_signal_inout_ifIN5sc_dt7sc_uintILi32EEEEERNS_9allocatorIS7_EEE17__destruct_at_endB8ue170006EPS7_, symObjAddr: 0x3438, symBinAddr: 0x100004CF4, symSize: 0x2C }
  - { offsetInCU: 0x383E7, offset: 0x383E7, size: 0x8, addend: 0x0, symName: __ZNSt3__114__split_bufferIPN7sc_core18sc_signal_inout_ifIN5sc_dt7sc_uintILi32EEEEERNS_9allocatorIS7_EEE17__destruct_at_endB8ue170006EPS7_NS_17integral_constantIbLb0EEE, symObjAddr: 0x3464, symBinAddr: 0x100004D20, symSize: 0x80 }
  - { offsetInCU: 0x38428, offset: 0x38428, size: 0x8, addend: 0x0, symName: __ZNKSt3__114__split_bufferIPN7sc_core18sc_signal_inout_ifIN5sc_dt7sc_uintILi32EEEEERNS_9allocatorIS7_EEE9__end_capB8ue170006Ev, symObjAddr: 0x34E4, symBinAddr: 0x100004DA0, symSize: 0x28 }
  - { offsetInCU: 0x3844E, offset: 0x3844E, size: 0x8, addend: 0x0, symName: __ZNKSt3__117__compressed_pairIPPN7sc_core18sc_signal_inout_ifIN5sc_dt7sc_uintILi32EEEEERNS_9allocatorIS7_EEE5firstB8ue170006Ev, symObjAddr: 0x350C, symBinAddr: 0x100004DC8, symSize: 0x24 }
  - { offsetInCU: 0x38474, offset: 0x38474, size: 0x8, addend: 0x0, symName: __ZN7sc_core8sc_inoutIN5sc_dt7sc_uintILi32EEEE5writeERKS3_, symObjAddr: 0x3530, symBinAddr: 0x100004DEC, symSize: 0x40 }
  - { offsetInCU: 0x384A9, offset: 0x384A9, size: 0x8, addend: 0x0, symName: __ZN7sc_core9sc_port_bINS_18sc_signal_inout_ifIN5sc_dt7sc_uintILi32EEEEEEptEv, symObjAddr: 0x3570, symBinAddr: 0x100004E2C, symSize: 0x5C }
  - { offsetInCU: 0x384D1, offset: 0x384D1, size: 0x8, addend: 0x0, symName: __ZNKSt3__16vectorIPN7sc_core18sc_signal_inout_ifIN5sc_dt7sc_uintILi32EEEEENS_9allocatorIS7_EEEixB8ue170006Em, symObjAddr: 0x35CC, symBinAddr: 0x100004E88, symSize: 0x24 }
  - { offsetInCU: 0x38508, offset: 0x38508, size: 0x8, addend: 0x0, symName: __ZN7sc_core5sc_inIbED2Ev, symObjAddr: 0x35F0, symBinAddr: 0x100004EAC, symSize: 0xE4 }
  - { offsetInCU: 0x38532, offset: 0x38532, size: 0x8, addend: 0x0, symName: __ZN5cacheD2Ev, symObjAddr: 0x36D4, symBinAddr: 0x100004F90, symSize: 0xC4 }
  - { offsetInCU: 0x3855E, offset: 0x3855E, size: 0x8, addend: 0x0, symName: __ZThn104_N5cacheD1Ev, symObjAddr: 0x3798, symBinAddr: 0x100005054, symSize: 0x1C }
  - { offsetInCU: 0x38574, offset: 0x38574, size: 0x8, addend: 0x0, symName: __ZN5sc_dt7sc_uintILi32EED1Ev, symObjAddr: 0x37B4, symBinAddr: 0x100005070, symSize: 0x2C }
  - { offsetInCU: 0x385A0, offset: 0x385A0, size: 0x8, addend: 0x0, symName: __ZN7sc_core5sc_inIN5sc_dt7sc_uintILi32EEEED1Ev, symObjAddr: 0x37E0, symBinAddr: 0x10000509C, symSize: 0x2C }
  - { offsetInCU: 0x385CA, offset: 0x385CA, size: 0x8, addend: 0x0, symName: __ZN5cacheD0Ev, symObjAddr: 0x380C, symBinAddr: 0x1000050C8, symSize: 0x30 }
  - { offsetInCU: 0x385F6, offset: 0x385F6, size: 0x8, addend: 0x0, symName: __ZThn104_N5cacheD0Ev, symObjAddr: 0x383C, symBinAddr: 0x1000050F8, symSize: 0x18 }
  - { offsetInCU: 0x3860C, offset: 0x3860C, size: 0x8, addend: 0x0, symName: __ZN5sc_dt7sc_uintILi32EED2Ev, symObjAddr: 0x3854, symBinAddr: 0x100005110, symSize: 0x2C }
  - { offsetInCU: 0x38638, offset: 0x38638, size: 0x8, addend: 0x0, symName: __ZN5sc_dt12sc_uint_baseD2Ev, symObjAddr: 0x3880, symBinAddr: 0x10000513C, symSize: 0x2C }
  - { offsetInCU: 0x38662, offset: 0x38662, size: 0x8, addend: 0x0, symName: __ZN5sc_dt13sc_value_baseD2Ev, symObjAddr: 0x38AC, symBinAddr: 0x100005168, symSize: 0x14 }
  - { offsetInCU: 0x3868C, offset: 0x3868C, size: 0x8, addend: 0x0, symName: __ZN7sc_core5sc_inIN5sc_dt7sc_uintILi32EEEED2Ev, symObjAddr: 0x38C0, symBinAddr: 0x10000517C, symSize: 0x84 }
  - { offsetInCU: 0x386B6, offset: 0x386B6, size: 0x8, addend: 0x0, symName: __ZNK7sc_core5sc_inIN5sc_dt7sc_uintILi32EEEE13remove_tracesEv, symObjAddr: 0x3944, symBinAddr: 0x100005200, symSize: 0xF4 }
  - { offsetInCU: 0x386FC, offset: 0x386FC, size: 0x8, addend: 0x0, symName: __ZN7sc_core7sc_portINS_15sc_signal_in_ifIN5sc_dt7sc_uintILi32EEEEELi1ELNS_14sc_port_policyE0EED2Ev, symObjAddr: 0x3A38, symBinAddr: 0x1000052F4, symSize: 0x2C }
  - { offsetInCU: 0x38726, offset: 0x38726, size: 0x8, addend: 0x0, symName: __ZNK7sc_core5sc_inIN5sc_dt7sc_uintILi32EEEE4kindEv, symObjAddr: 0x3A64, symBinAddr: 0x100005320, symSize: 0x18 }
  - { offsetInCU: 0x3874C, offset: 0x3874C, size: 0x8, addend: 0x0, symName: __ZN7sc_core5sc_inIN5sc_dt7sc_uintILi32EEEED0Ev, symObjAddr: 0x3A7C, symBinAddr: 0x100005338, symSize: 0x30 }
  - { offsetInCU: 0x38776, offset: 0x38776, size: 0x8, addend: 0x0, symName: __ZN7sc_core9sc_port_bINS_15sc_signal_in_ifIN5sc_dt7sc_uintILi32EEEEEE13get_interfaceEv, symObjAddr: 0x3AAC, symBinAddr: 0x100005368, symSize: 0x50 }
  - { offsetInCU: 0x3879C, offset: 0x3879C, size: 0x8, addend: 0x0, symName: __ZNK7sc_core9sc_port_bINS_15sc_signal_in_ifIN5sc_dt7sc_uintILi32EEEEEE13get_interfaceEv, symObjAddr: 0x3AFC, symBinAddr: 0x1000053B8, symSize: 0x50 }
  - { offsetInCU: 0x387C2, offset: 0x387C2, size: 0x8, addend: 0x0, symName: __ZNK7sc_core9sc_port_bINS_15sc_signal_in_ifIN5sc_dt7sc_uintILi32EEEEEE18get_interface_typeEv, symObjAddr: 0x3B4C, symBinAddr: 0x100005408, symSize: 0x30 }
  - { offsetInCU: 0x387EA, offset: 0x387EA, size: 0x8, addend: 0x0, symName: __ZN7sc_core5sc_inIN5sc_dt7sc_uintILi32EEEE5vbindERNS_12sc_interfaceE, symObjAddr: 0x3B7C, symBinAddr: 0x100005438, symSize: 0x2C }
  - { offsetInCU: 0x38821, offset: 0x38821, size: 0x8, addend: 0x0, symName: __ZN7sc_core5sc_inIN5sc_dt7sc_uintILi32EEEE5vbindERNS_12sc_port_baseE, symObjAddr: 0x3BA8, symBinAddr: 0x100005464, symSize: 0x128 }
  - { offsetInCU: 0x38876, offset: 0x38876, size: 0x8, addend: 0x0, symName: __ZN7sc_core9sc_port_bINS_15sc_signal_in_ifIN5sc_dt7sc_uintILi32EEEEEE13add_interfaceEPNS_12sc_interfaceE, symObjAddr: 0x3CD0, symBinAddr: 0x10000558C, symSize: 0x160 }
  - { offsetInCU: 0x388E9, offset: 0x388E9, size: 0x8, addend: 0x0, symName: __ZNK7sc_core9sc_port_bINS_15sc_signal_in_ifIN5sc_dt7sc_uintILi32EEEEEE15interface_countEv, symObjAddr: 0x3E30, symBinAddr: 0x1000056EC, symSize: 0x24 }
  - { offsetInCU: 0x38911, offset: 0x38911, size: 0x8, addend: 0x0, symName: __ZN7sc_core5sc_inIN5sc_dt7sc_uintILi32EEEE18end_of_elaborationEv, symObjAddr: 0x3E54, symBinAddr: 0x100005710, symSize: 0x134 }
  - { offsetInCU: 0x38984, offset: 0x38984, size: 0x8, addend: 0x0, symName: __ZNK7sc_core9sc_port_bINS_15sc_signal_in_ifIN5sc_dt7sc_uintILi32EEEEEE14make_sensitiveEPNS_17sc_thread_processEPNS_15sc_event_finderE, symObjAddr: 0x3F88, symBinAddr: 0x100005844, symSize: 0x114 }
  - { offsetInCU: 0x38A24, offset: 0x38A24, size: 0x8, addend: 0x0, symName: __ZNK7sc_core9sc_port_bINS_15sc_signal_in_ifIN5sc_dt7sc_uintILi32EEEEEE14make_sensitiveEPNS_17sc_method_processEPNS_15sc_event_finderE, symObjAddr: 0x409C, symBinAddr: 0x100005958, symSize: 0x114 }
  - { offsetInCU: 0x38AC4, offset: 0x38AC4, size: 0x8, addend: 0x0, symName: __ZN7sc_core5sc_inIN5sc_dt7sc_uintILi32EEEE4bindERNS_15sc_signal_in_ifIS3_EE, symObjAddr: 0x41B0, symBinAddr: 0x100005A6C, symSize: 0x34 }
  - { offsetInCU: 0x38AF8, offset: 0x38AF8, size: 0x8, addend: 0x0, symName: __ZN7sc_core5sc_inIN5sc_dt7sc_uintILi32EEEE4bindERNS_9sc_port_bINS_15sc_signal_in_ifIS3_EEEE, symObjAddr: 0x41E4, symBinAddr: 0x100005AA0, symSize: 0x2C }
  - { offsetInCU: 0x38B2D, offset: 0x38B2D, size: 0x8, addend: 0x0, symName: __ZN7sc_core5sc_inIN5sc_dt7sc_uintILi32EEEE4bindERKNS_15sc_signal_in_ifIS3_EE, symObjAddr: 0x4210, symBinAddr: 0x100005ACC, symSize: 0x38 }
  - { offsetInCU: 0x38B61, offset: 0x38B61, size: 0x8, addend: 0x0, symName: __ZN7sc_core5sc_inIN5sc_dt7sc_uintILi32EEEE4bindERNS_7sc_portINS_15sc_signal_in_ifIS3_EELi1ELNS_14sc_port_policyE0EEE, symObjAddr: 0x4248, symBinAddr: 0x100005B04, symSize: 0x2C }
  - { offsetInCU: 0x38B95, offset: 0x38B95, size: 0x8, addend: 0x0, symName: __ZN7sc_core5sc_inIN5sc_dt7sc_uintILi32EEEE4bindERNS_7sc_portINS_18sc_signal_inout_ifIS3_EELi1ELNS_14sc_port_policyE0EEE, symObjAddr: 0x4274, symBinAddr: 0x100005B30, symSize: 0x2C }
  - { offsetInCU: 0x38BC9, offset: 0x38BC9, size: 0x8, addend: 0x0, symName: __ZN7sc_core9sc_port_bINS_15sc_signal_in_ifIN5sc_dt7sc_uintILi32EEEEEED2Ev, symObjAddr: 0x42A0, symBinAddr: 0x100005B5C, symSize: 0x48 }
  - { offsetInCU: 0x38BF3, offset: 0x38BF3, size: 0x8, addend: 0x0, symName: __ZNSt3__16vectorIPN7sc_core15sc_signal_in_ifIN5sc_dt7sc_uintILi32EEEEENS_9allocatorIS7_EEED1B8ue170006Ev, symObjAddr: 0x42E8, symBinAddr: 0x100005BA4, symSize: 0x2C }
  - { offsetInCU: 0x38C1D, offset: 0x38C1D, size: 0x8, addend: 0x0, symName: __ZN7sc_core9sc_port_bINS_15sc_signal_in_ifIN5sc_dt7sc_uintILi32EEEEEED1Ev, symObjAddr: 0x4314, symBinAddr: 0x100005BD0, symSize: 0x2C }
  - { offsetInCU: 0x38C47, offset: 0x38C47, size: 0x8, addend: 0x0, symName: __ZN7sc_core9sc_port_bINS_15sc_signal_in_ifIN5sc_dt7sc_uintILi32EEEEEED0Ev, symObjAddr: 0x4340, symBinAddr: 0x100005BFC, symSize: 0x30 }
  - { offsetInCU: 0x38C71, offset: 0x38C71, size: 0x8, addend: 0x0, symName: __ZN7sc_core9sc_port_bINS_15sc_signal_in_ifIN5sc_dt7sc_uintILi32EEEEEE5vbindERNS_12sc_interfaceE, symObjAddr: 0x4370, symBinAddr: 0x100005C2C, symSize: 0xBC }
  - { offsetInCU: 0x38CB7, offset: 0x38CB7, size: 0x8, addend: 0x0, symName: __ZN7sc_core9sc_port_bINS_15sc_signal_in_ifIN5sc_dt7sc_uintILi32EEEEEE5vbindERNS_12sc_port_baseE, symObjAddr: 0x442C, symBinAddr: 0x100005CE8, symSize: 0xB0 }
  - { offsetInCU: 0x38CFD, offset: 0x38CFD, size: 0x8, addend: 0x0, symName: __ZN7sc_core9sc_port_bINS_15sc_signal_in_ifIN5sc_dt7sc_uintILi32EEEEEE4bindERS5_, symObjAddr: 0x44DC, symBinAddr: 0x100005D98, symSize: 0x38 }
  - { offsetInCU: 0x38D32, offset: 0x38D32, size: 0x8, addend: 0x0, symName: __ZN7sc_core9sc_port_bINS_15sc_signal_in_ifIN5sc_dt7sc_uintILi32EEEEEE4bindERS6_, symObjAddr: 0x4514, symBinAddr: 0x100005DD0, symSize: 0x2C }
  - { offsetInCU: 0x38D67, offset: 0x38D67, size: 0x8, addend: 0x0, symName: __ZNSt3__16vectorIPN7sc_core15sc_signal_in_ifIN5sc_dt7sc_uintILi32EEEEENS_9allocatorIS7_EEED2B8ue170006Ev, symObjAddr: 0x4540, symBinAddr: 0x100005DFC, symSize: 0x44 }
  - { offsetInCU: 0x38D91, offset: 0x38D91, size: 0x8, addend: 0x0, symName: __ZNSt3__16vectorIPN7sc_core15sc_signal_in_ifIN5sc_dt7sc_uintILi32EEEEENS_9allocatorIS7_EEE16__destroy_vectorC1B8ue170006ERSA_, symObjAddr: 0x4584, symBinAddr: 0x100005E40, symSize: 0x34 }
  - { offsetInCU: 0x38DCA, offset: 0x38DCA, size: 0x8, addend: 0x0, symName: __ZNSt3__16vectorIPN7sc_core15sc_signal_in_ifIN5sc_dt7sc_uintILi32EEEEENS_9allocatorIS7_EEE16__destroy_vectorclB8ue170006Ev, symObjAddr: 0x45B8, symBinAddr: 0x100005E74, symSize: 0x90 }
  - { offsetInCU: 0x38DF0, offset: 0x38DF0, size: 0x8, addend: 0x0, symName: __ZNSt3__16vectorIPN7sc_core15sc_signal_in_ifIN5sc_dt7sc_uintILi32EEEEENS_9allocatorIS7_EEE16__destroy_vectorC2B8ue170006ERSA_, symObjAddr: 0x4648, symBinAddr: 0x100005F04, symSize: 0x20 }
  - { offsetInCU: 0x38E29, offset: 0x38E29, size: 0x8, addend: 0x0, symName: __ZNSt3__16vectorIPN7sc_core15sc_signal_in_ifIN5sc_dt7sc_uintILi32EEEEENS_9allocatorIS7_EEE7__clearB8ue170006Ev, symObjAddr: 0x4668, symBinAddr: 0x100005F24, symSize: 0x28 }
  - { offsetInCU: 0x38E4F, offset: 0x38E4F, size: 0x8, addend: 0x0, symName: __ZNKSt3__16vectorIPN7sc_core15sc_signal_in_ifIN5sc_dt7sc_uintILi32EEEEENS_9allocatorIS7_EEE17__annotate_deleteB8ue170006Ev, symObjAddr: 0x4690, symBinAddr: 0x100005F4C, symSize: 0xB8 }
  - { offsetInCU: 0x38E75, offset: 0x38E75, size: 0x8, addend: 0x0, symName: __ZNSt3__116allocator_traitsINS_9allocatorIPN7sc_core15sc_signal_in_ifIN5sc_dt7sc_uintILi32EEEEEEEE10deallocateB8ue170006ERS9_PS8_m, symObjAddr: 0x4748, symBinAddr: 0x100006004, symSize: 0x34 }
  - { offsetInCU: 0x38EB7, offset: 0x38EB7, size: 0x8, addend: 0x0, symName: __ZNSt3__16vectorIPN7sc_core15sc_signal_in_ifIN5sc_dt7sc_uintILi32EEEEENS_9allocatorIS7_EEE7__allocB8ue170006Ev, symObjAddr: 0x477C, symBinAddr: 0x100006038, symSize: 0x28 }
  - { offsetInCU: 0x38EDD, offset: 0x38EDD, size: 0x8, addend: 0x0, symName: __ZNKSt3__16vectorIPN7sc_core15sc_signal_in_ifIN5sc_dt7sc_uintILi32EEEEENS_9allocatorIS7_EEE8capacityB8ue170006Ev, symObjAddr: 0x47A4, symBinAddr: 0x100006060, symSize: 0x40 }
  - { offsetInCU: 0x38F03, offset: 0x38F03, size: 0x8, addend: 0x0, symName: __ZNSt3__16vectorIPN7sc_core15sc_signal_in_ifIN5sc_dt7sc_uintILi32EEEEENS_9allocatorIS7_EEE22__base_destruct_at_endB8ue170006EPS7_, symObjAddr: 0x47E4, symBinAddr: 0x1000060A0, symSize: 0x8C }
  - { offsetInCU: 0x38F47, offset: 0x38F47, size: 0x8, addend: 0x0, symName: __ZNSt3__116allocator_traitsINS_9allocatorIPN7sc_core15sc_signal_in_ifIN5sc_dt7sc_uintILi32EEEEEEEE7destroyB8ue170006IS8_vEEvRS9_PT_, symObjAddr: 0x4870, symBinAddr: 0x10000612C, symSize: 0x2C }
  - { offsetInCU: 0x38F84, offset: 0x38F84, size: 0x8, addend: 0x0, symName: __ZNSt3__19allocatorIPN7sc_core15sc_signal_in_ifIN5sc_dt7sc_uintILi32EEEEEE7destroyB8ue170006EPS7_, symObjAddr: 0x48B0, symBinAddr: 0x10000616C, symSize: 0x14 }
  - { offsetInCU: 0x38FB8, offset: 0x38FB8, size: 0x8, addend: 0x0, symName: __ZNKSt3__16vectorIPN7sc_core15sc_signal_in_ifIN5sc_dt7sc_uintILi32EEEEENS_9allocatorIS7_EEE31__annotate_contiguous_containerB8ue170006EPKvSC_SC_SC_, symObjAddr: 0x48C4, symBinAddr: 0x100006180, symSize: 0x20 }
  - { offsetInCU: 0x3900E, offset: 0x3900E, size: 0x8, addend: 0x0, symName: __ZNKSt3__16vectorIPN7sc_core15sc_signal_in_ifIN5sc_dt7sc_uintILi32EEEEENS_9allocatorIS7_EEE4dataB8ue170006Ev, symObjAddr: 0x48E4, symBinAddr: 0x1000061A0, symSize: 0x28 }
  - { offsetInCU: 0x39034, offset: 0x39034, size: 0x8, addend: 0x0, symName: __ZNKSt3__16vectorIPN7sc_core15sc_signal_in_ifIN5sc_dt7sc_uintILi32EEEEENS_9allocatorIS7_EEE4sizeB8ue170006Ev, symObjAddr: 0x490C, symBinAddr: 0x1000061C8, symSize: 0x28 }
  - { offsetInCU: 0x3905A, offset: 0x3905A, size: 0x8, addend: 0x0, symName: __ZNSt3__19allocatorIPN7sc_core15sc_signal_in_ifIN5sc_dt7sc_uintILi32EEEEEE10deallocateB8ue170006EPS7_m, symObjAddr: 0x4934, symBinAddr: 0x1000061F0, symSize: 0x40 }
  - { offsetInCU: 0x3909C, offset: 0x3909C, size: 0x8, addend: 0x0, symName: __ZNSt3__117__compressed_pairIPPN7sc_core15sc_signal_in_ifIN5sc_dt7sc_uintILi32EEEEENS_9allocatorIS7_EEE6secondB8ue170006Ev, symObjAddr: 0x4974, symBinAddr: 0x100006230, symSize: 0x24 }
  - { offsetInCU: 0x390C2, offset: 0x390C2, size: 0x8, addend: 0x0, symName: __ZNSt3__122__compressed_pair_elemINS_9allocatorIPN7sc_core15sc_signal_in_ifIN5sc_dt7sc_uintILi32EEEEEEELi1ELb1EE5__getB8ue170006Ev, symObjAddr: 0x4998, symBinAddr: 0x100006254, symSize: 0x14 }
  - { offsetInCU: 0x390E8, offset: 0x390E8, size: 0x8, addend: 0x0, symName: __ZNKSt3__16vectorIPN7sc_core15sc_signal_in_ifIN5sc_dt7sc_uintILi32EEEEENS_9allocatorIS7_EEE9__end_capB8ue170006Ev, symObjAddr: 0x49AC, symBinAddr: 0x100006268, symSize: 0x28 }
  - { offsetInCU: 0x3910E, offset: 0x3910E, size: 0x8, addend: 0x0, symName: __ZNKSt3__117__compressed_pairIPPN7sc_core15sc_signal_in_ifIN5sc_dt7sc_uintILi32EEEEENS_9allocatorIS7_EEE5firstB8ue170006Ev, symObjAddr: 0x49D4, symBinAddr: 0x100006290, symSize: 0x24 }
  - { offsetInCU: 0x39134, offset: 0x39134, size: 0x8, addend: 0x0, symName: __ZNKSt3__122__compressed_pair_elemIPPN7sc_core15sc_signal_in_ifIN5sc_dt7sc_uintILi32EEEEELi0ELb0EE5__getB8ue170006Ev, symObjAddr: 0x49F8, symBinAddr: 0x1000062B4, symSize: 0x14 }
  - { offsetInCU: 0x3915A, offset: 0x3915A, size: 0x8, addend: 0x0, symName: __ZNK7sc_core9sc_port_bINS_15sc_signal_in_ifIN5sc_dt7sc_uintILi32EEEEEE4sizeEv, symObjAddr: 0x4A0C, symBinAddr: 0x1000062C8, symSize: 0x28 }
  - { offsetInCU: 0x39180, offset: 0x39180, size: 0x8, addend: 0x0, symName: __ZNSt3__16vectorIPN7sc_core15sc_signal_in_ifIN5sc_dt7sc_uintILi32EEEEENS_9allocatorIS7_EEEixB8ue170006Em, symObjAddr: 0x4A34, symBinAddr: 0x1000062F0, symSize: 0x24 }
  - { offsetInCU: 0x391B7, offset: 0x391B7, size: 0x8, addend: 0x0, symName: __ZNSt3__16vectorIPN7sc_core15sc_signal_in_ifIN5sc_dt7sc_uintILi32EEEEENS_9allocatorIS7_EEE9push_backB8ue170006ERKS7_, symObjAddr: 0x4A58, symBinAddr: 0x100006314, symSize: 0x6C }
  - { offsetInCU: 0x391EE, offset: 0x391EE, size: 0x8, addend: 0x0, symName: __ZNSt3__16vectorIPN7sc_core15sc_signal_in_ifIN5sc_dt7sc_uintILi32EEEEENS_9allocatorIS7_EEE9__end_capB8ue170006Ev, symObjAddr: 0x4AC4, symBinAddr: 0x100006380, symSize: 0x28 }
  - { offsetInCU: 0x39214, offset: 0x39214, size: 0x8, addend: 0x0, symName: __ZNSt3__16vectorIPN7sc_core15sc_signal_in_ifIN5sc_dt7sc_uintILi32EEEEENS_9allocatorIS7_EEE22__construct_one_at_endB8ue170006IJRKS7_EEEvDpOT_, symObjAddr: 0x4AEC, symBinAddr: 0x1000063A8, symSize: 0x90 }
  - { offsetInCU: 0x39263, offset: 0x39263, size: 0x8, addend: 0x0, symName: __ZNSt3__16vectorIPN7sc_core15sc_signal_in_ifIN5sc_dt7sc_uintILi32EEEEENS_9allocatorIS7_EEE21__push_back_slow_pathIRKS7_EEvOT_, symObjAddr: 0x4B7C, symBinAddr: 0x100006438, symSize: 0xD8 }
  - { offsetInCU: 0x392C1, offset: 0x392C1, size: 0x8, addend: 0x0, symName: __ZNSt3__117__compressed_pairIPPN7sc_core15sc_signal_in_ifIN5sc_dt7sc_uintILi32EEEEENS_9allocatorIS7_EEE5firstB8ue170006Ev, symObjAddr: 0x4C54, symBinAddr: 0x100006510, symSize: 0x24 }
  - { offsetInCU: 0x392E7, offset: 0x392E7, size: 0x8, addend: 0x0, symName: __ZNSt3__122__compressed_pair_elemIPPN7sc_core15sc_signal_in_ifIN5sc_dt7sc_uintILi32EEEEELi0ELb0EE5__getB8ue170006Ev, symObjAddr: 0x4C78, symBinAddr: 0x100006534, symSize: 0x14 }
  - { offsetInCU: 0x39328, offset: 0x39328, size: 0x8, addend: 0x0, symName: __ZNSt3__16vectorIPN7sc_core15sc_signal_in_ifIN5sc_dt7sc_uintILi32EEEEENS_9allocatorIS7_EEE21_ConstructTransactionC1B8ue170006ERSA_m, symObjAddr: 0x4C8C, symBinAddr: 0x100006548, symSize: 0x3C }
  - { offsetInCU: 0x39370, offset: 0x39370, size: 0x8, addend: 0x0, symName: __ZNSt3__116allocator_traitsINS_9allocatorIPN7sc_core15sc_signal_in_ifIN5sc_dt7sc_uintILi32EEEEEEEE9constructB8ue170006IS8_JRKS8_EvEEvRS9_PT_DpOT0_, symObjAddr: 0x4CC8, symBinAddr: 0x100006584, symSize: 0x34 }
  - { offsetInCU: 0x393C7, offset: 0x393C7, size: 0x8, addend: 0x0, symName: __ZNSt3__16vectorIPN7sc_core15sc_signal_in_ifIN5sc_dt7sc_uintILi32EEEEENS_9allocatorIS7_EEE21_ConstructTransactionD1B8ue170006Ev, symObjAddr: 0x4CFC, symBinAddr: 0x1000065B8, symSize: 0x2C }
  - { offsetInCU: 0x393F1, offset: 0x393F1, size: 0x8, addend: 0x0, symName: __ZNSt3__16vectorIPN7sc_core15sc_signal_in_ifIN5sc_dt7sc_uintILi32EEEEENS_9allocatorIS7_EEE21_ConstructTransactionC2B8ue170006ERSA_m, symObjAddr: 0x4D28, symBinAddr: 0x1000065E4, symSize: 0x44 }
  - { offsetInCU: 0x39439, offset: 0x39439, size: 0x8, addend: 0x0, symName: __ZNSt3__19allocatorIPN7sc_core15sc_signal_in_ifIN5sc_dt7sc_uintILi32EEEEEE9constructB8ue170006IS7_JRKS7_EEEvPT_DpOT0_, symObjAddr: 0x4D6C, symBinAddr: 0x100006628, symSize: 0x28 }
  - { offsetInCU: 0x3948F, offset: 0x3948F, size: 0x8, addend: 0x0, symName: __ZNSt3__16vectorIPN7sc_core15sc_signal_in_ifIN5sc_dt7sc_uintILi32EEEEENS_9allocatorIS7_EEE21_ConstructTransactionD2B8ue170006Ev, symObjAddr: 0x4D94, symBinAddr: 0x100006650, symSize: 0x20 }
  - { offsetInCU: 0x394B9, offset: 0x394B9, size: 0x8, addend: 0x0, symName: __ZNKSt3__16vectorIPN7sc_core15sc_signal_in_ifIN5sc_dt7sc_uintILi32EEEEENS_9allocatorIS7_EEE11__recommendB8ue170006Em, symObjAddr: 0x4DB4, symBinAddr: 0x100006670, symSize: 0xB4 }
  - { offsetInCU: 0x3950E, offset: 0x3950E, size: 0x8, addend: 0x0, symName: __ZNSt3__114__split_bufferIPN7sc_core15sc_signal_in_ifIN5sc_dt7sc_uintILi32EEEEERNS_9allocatorIS7_EEEC1EmmSA_, symObjAddr: 0x4E68, symBinAddr: 0x100006724, symSize: 0x44 }
  - { offsetInCU: 0x39564, offset: 0x39564, size: 0x8, addend: 0x0, symName: __ZNSt3__114__split_bufferIPN7sc_core15sc_signal_in_ifIN5sc_dt7sc_uintILi32EEEEERNS_9allocatorIS7_EEED1Ev, symObjAddr: 0x4FBC, symBinAddr: 0x100006878, symSize: 0x2C }
  - { offsetInCU: 0x39590, offset: 0x39590, size: 0x8, addend: 0x0, symName: __ZNKSt3__16vectorIPN7sc_core15sc_signal_in_ifIN5sc_dt7sc_uintILi32EEEEENS_9allocatorIS7_EEE8max_sizeEv, symObjAddr: 0x4FE8, symBinAddr: 0x1000068A4, symSize: 0x60 }
  - { offsetInCU: 0x395B8, offset: 0x395B8, size: 0x8, addend: 0x0, symName: __ZNKSt3__16vectorIPN7sc_core15sc_signal_in_ifIN5sc_dt7sc_uintILi32EEEEENS_9allocatorIS7_EEE20__throw_length_errorB8ue170006Ev, symObjAddr: 0x5048, symBinAddr: 0x100006904, symSize: 0x1C }
  - { offsetInCU: 0x395E9, offset: 0x395E9, size: 0x8, addend: 0x0, symName: __ZNSt3__116allocator_traitsINS_9allocatorIPN7sc_core15sc_signal_in_ifIN5sc_dt7sc_uintILi32EEEEEEEE8max_sizeB8ue170006IS9_vEEmRKS9_, symObjAddr: 0x5064, symBinAddr: 0x100006920, symSize: 0x24 }
  - { offsetInCU: 0x39617, offset: 0x39617, size: 0x8, addend: 0x0, symName: __ZNKSt3__16vectorIPN7sc_core15sc_signal_in_ifIN5sc_dt7sc_uintILi32EEEEENS_9allocatorIS7_EEE7__allocB8ue170006Ev, symObjAddr: 0x5088, symBinAddr: 0x100006944, symSize: 0x28 }
  - { offsetInCU: 0x3963D, offset: 0x3963D, size: 0x8, addend: 0x0, symName: __ZNKSt3__19allocatorIPN7sc_core15sc_signal_in_ifIN5sc_dt7sc_uintILi32EEEEEE8max_sizeB8ue170006Ev, symObjAddr: 0x50B0, symBinAddr: 0x10000696C, symSize: 0x14 }
  - { offsetInCU: 0x39663, offset: 0x39663, size: 0x8, addend: 0x0, symName: __ZNKSt3__117__compressed_pairIPPN7sc_core15sc_signal_in_ifIN5sc_dt7sc_uintILi32EEEEENS_9allocatorIS7_EEE6secondB8ue170006Ev, symObjAddr: 0x50C4, symBinAddr: 0x100006980, symSize: 0x24 }
  - { offsetInCU: 0x39689, offset: 0x39689, size: 0x8, addend: 0x0, symName: __ZNKSt3__122__compressed_pair_elemINS_9allocatorIPN7sc_core15sc_signal_in_ifIN5sc_dt7sc_uintILi32EEEEEEELi1ELb1EE5__getB8ue170006Ev, symObjAddr: 0x50E8, symBinAddr: 0x1000069A4, symSize: 0x14 }
  - { offsetInCU: 0x396AF, offset: 0x396AF, size: 0x8, addend: 0x0, symName: __ZNSt3__114__split_bufferIPN7sc_core15sc_signal_in_ifIN5sc_dt7sc_uintILi32EEEEERNS_9allocatorIS7_EEEC2EmmSA_, symObjAddr: 0x50FC, symBinAddr: 0x1000069B8, symSize: 0xD4 }
  - { offsetInCU: 0x39723, offset: 0x39723, size: 0x8, addend: 0x0, symName: __ZNSt3__117__compressed_pairIPPN7sc_core15sc_signal_in_ifIN5sc_dt7sc_uintILi32EEEEERNS_9allocatorIS7_EEEC1B8ue170006IDnSB_EEOT_OT0_, symObjAddr: 0x51D0, symBinAddr: 0x100006A8C, symSize: 0x3C }
  - { offsetInCU: 0x3977B, offset: 0x3977B, size: 0x8, addend: 0x0, symName: __ZNSt3__114__split_bufferIPN7sc_core15sc_signal_in_ifIN5sc_dt7sc_uintILi32EEEEERNS_9allocatorIS7_EEE7__allocB8ue170006Ev, symObjAddr: 0x524C, symBinAddr: 0x100006B08, symSize: 0x28 }
  - { offsetInCU: 0x397A1, offset: 0x397A1, size: 0x8, addend: 0x0, symName: __ZNSt3__114__split_bufferIPN7sc_core15sc_signal_in_ifIN5sc_dt7sc_uintILi32EEEEERNS_9allocatorIS7_EEE9__end_capB8ue170006Ev, symObjAddr: 0x5274, symBinAddr: 0x100006B30, symSize: 0x28 }
  - { offsetInCU: 0x397C7, offset: 0x397C7, size: 0x8, addend: 0x0, symName: __ZNSt3__117__compressed_pairIPPN7sc_core15sc_signal_in_ifIN5sc_dt7sc_uintILi32EEEEERNS_9allocatorIS7_EEEC2B8ue170006IDnSB_EEOT_OT0_, symObjAddr: 0x529C, symBinAddr: 0x100006B58, symSize: 0x48 }
  - { offsetInCU: 0x3981F, offset: 0x3981F, size: 0x8, addend: 0x0, symName: __ZNSt3__122__compressed_pair_elemIPPN7sc_core15sc_signal_in_ifIN5sc_dt7sc_uintILi32EEEEELi0ELb0EEC2B8ue170006IDnvEEOT_, symObjAddr: 0x52E4, symBinAddr: 0x100006BA0, symSize: 0x1C }
  - { offsetInCU: 0x39861, offset: 0x39861, size: 0x8, addend: 0x0, symName: __ZNSt3__122__compressed_pair_elemIRNS_9allocatorIPN7sc_core15sc_signal_in_ifIN5sc_dt7sc_uintILi32EEEEEEELi1ELb0EEC2B8ue170006ISA_vEEOT_, symObjAddr: 0x5300, symBinAddr: 0x100006BBC, symSize: 0x20 }
  - { offsetInCU: 0x398A3, offset: 0x398A3, size: 0x8, addend: 0x0, symName: __ZNSt3__19allocatorIPN7sc_core15sc_signal_in_ifIN5sc_dt7sc_uintILi32EEEEEE8allocateB8ue170006Em, symObjAddr: 0x5320, symBinAddr: 0x100006BDC, symSize: 0x58 }
  - { offsetInCU: 0x398D7, offset: 0x398D7, size: 0x8, addend: 0x0, symName: __ZNSt3__117__compressed_pairIPPN7sc_core15sc_signal_in_ifIN5sc_dt7sc_uintILi32EEEEERNS_9allocatorIS7_EEE6secondB8ue170006Ev, symObjAddr: 0x5378, symBinAddr: 0x100006C34, symSize: 0x28 }
  - { offsetInCU: 0x398FD, offset: 0x398FD, size: 0x8, addend: 0x0, symName: __ZNSt3__122__compressed_pair_elemIRNS_9allocatorIPN7sc_core15sc_signal_in_ifIN5sc_dt7sc_uintILi32EEEEEEELi1ELb0EE5__getB8ue170006Ev, symObjAddr: 0x53A0, symBinAddr: 0x100006C5C, symSize: 0x18 }
  - { offsetInCU: 0x39923, offset: 0x39923, size: 0x8, addend: 0x0, symName: __ZNSt3__117__compressed_pairIPPN7sc_core15sc_signal_in_ifIN5sc_dt7sc_uintILi32EEEEERNS_9allocatorIS7_EEE5firstB8ue170006Ev, symObjAddr: 0x53B8, symBinAddr: 0x100006C74, symSize: 0x24 }
  - { offsetInCU: 0x39949, offset: 0x39949, size: 0x8, addend: 0x0, symName: __ZNSt3__116reverse_iteratorIPPN7sc_core15sc_signal_in_ifIN5sc_dt7sc_uintILi32EEEEEEC1B8ue170006ES8_, symObjAddr: 0x5454, symBinAddr: 0x100006D10, symSize: 0x34 }
  - { offsetInCU: 0x39981, offset: 0x39981, size: 0x8, addend: 0x0, symName: __ZNKSt3__116reverse_iteratorIPPN7sc_core15sc_signal_in_ifIN5sc_dt7sc_uintILi32EEEEEE4baseB8ue170006Ev, symObjAddr: 0x5488, symBinAddr: 0x100006D44, symSize: 0x18 }
  - { offsetInCU: 0x399A7, offset: 0x399A7, size: 0x8, addend: 0x0, symName: __ZNKSt3__16vectorIPN7sc_core15sc_signal_in_ifIN5sc_dt7sc_uintILi32EEEEENS_9allocatorIS7_EEE14__annotate_newB8ue170006Em, symObjAddr: 0x54DC, symBinAddr: 0x100006D98, symSize: 0xAC }
  - { offsetInCU: 0x399F8, offset: 0x399F8, size: 0x8, addend: 0x0, symName: __ZNKSt3__111__move_loopINS_17_ClassicAlgPolicyEEclB8ue170006INS_16reverse_iteratorIPPN7sc_core15sc_signal_in_ifIN5sc_dt7sc_uintILi32EEEEEEESD_SD_EENS_4pairIT_T1_EESF_T0_SG_, symObjAddr: 0x5878, symBinAddr: 0x100007134, symSize: 0xA0 }
  - { offsetInCU: 0x39A69, offset: 0x39A69, size: 0x8, addend: 0x0, symName: __ZNSt3__18_IterOpsINS_17_ClassicAlgPolicyEE11__iter_moveB8ue170006IRNS_16reverse_iteratorIPPN7sc_core15sc_signal_in_ifIN5sc_dt7sc_uintILi32EEEEEEEEENS_9enable_ifIXsr12is_referenceIDTdeclsr3stdE7declvalIRT_EEEEE5valueEDTclsr3stdE4movedeclsr3stdE7declvalISH_EEEEE4typeEOSG_, symObjAddr: 0x5AAC, symBinAddr: 0x100007368, symSize: 0x28 }
  - { offsetInCU: 0x39A95, offset: 0x39A95, size: 0x8, addend: 0x0, symName: __ZNKSt3__116reverse_iteratorIPPN7sc_core15sc_signal_in_ifIN5sc_dt7sc_uintILi32EEEEEEdeB8ue170006Ev, symObjAddr: 0x5AD4, symBinAddr: 0x100007390, symSize: 0x28 }
  - { offsetInCU: 0x39AC9, offset: 0x39AC9, size: 0x8, addend: 0x0, symName: __ZNSt3__116reverse_iteratorIPPN7sc_core15sc_signal_in_ifIN5sc_dt7sc_uintILi32EEEEEEppB8ue170006Ev, symObjAddr: 0x5AFC, symBinAddr: 0x1000073B8, symSize: 0x20 }
  - { offsetInCU: 0x39AEF, offset: 0x39AEF, size: 0x8, addend: 0x0, symName: __ZNSt3__18_IterOpsINS_17_ClassicAlgPolicyEE25__validate_iter_referenceB8ue170006IRNS_16reverse_iteratorIPPN7sc_core15sc_signal_in_ifIN5sc_dt7sc_uintILi32EEEEEEEEEvv, symObjAddr: 0x5B1C, symBinAddr: 0x1000073D8, symSize: 0x4 }
  - { offsetInCU: 0x39B0D, offset: 0x39B0D, size: 0x8, addend: 0x0, symName: __ZNSt3__118__unwrap_iter_implINS_16reverse_iteratorIPPN7sc_core15sc_signal_in_ifIN5sc_dt7sc_uintILi32EEEEEEELb0EE8__unwrapB8ue170006ESA_, symObjAddr: 0x5B20, symBinAddr: 0x1000073DC, symSize: 0x24 }
  - { offsetInCU: 0x39B36, offset: 0x39B36, size: 0x8, addend: 0x0, symName: __ZNSt3__14pairINS_16reverse_iteratorIPPN7sc_core15sc_signal_in_ifIN5sc_dt7sc_uintILi32EEEEEEESA_EC1B8ue170006ISA_SA_LPv0EEEOT_OT0_, symObjAddr: 0x5B44, symBinAddr: 0x100007400, symSize: 0x3C }
  - { offsetInCU: 0x39B94, offset: 0x39B94, size: 0x8, addend: 0x0, symName: __ZNSt3__14pairINS_16reverse_iteratorIPPN7sc_core15sc_signal_in_ifIN5sc_dt7sc_uintILi32EEEEEEESA_EC2B8ue170006ISA_SA_LPv0EEEOT_OT0_, symObjAddr: 0x5B80, symBinAddr: 0x10000743C, symSize: 0x34 }
  - { offsetInCU: 0x39BF2, offset: 0x39BF2, size: 0x8, addend: 0x0, symName: __ZNSt3__118__unwrap_iter_implINS_16reverse_iteratorIPPN7sc_core15sc_signal_in_ifIN5sc_dt7sc_uintILi32EEEEEEELb0EE8__rewrapB8ue170006ESA_SA_, symObjAddr: 0x5BB4, symBinAddr: 0x100007470, symSize: 0x2C }
  - { offsetInCU: 0x39C20, offset: 0x39C20, size: 0x8, addend: 0x0, symName: __ZNSt3__116reverse_iteratorIPPN7sc_core15sc_signal_in_ifIN5sc_dt7sc_uintILi32EEEEEEC2B8ue170006ES8_, symObjAddr: 0x5BE0, symBinAddr: 0x10000749C, symSize: 0x28 }
  - { offsetInCU: 0x39C58, offset: 0x39C58, size: 0x8, addend: 0x0, symName: __ZNSt3__114__split_bufferIPN7sc_core15sc_signal_in_ifIN5sc_dt7sc_uintILi32EEEEERNS_9allocatorIS7_EEED2Ev, symObjAddr: 0x5C08, symBinAddr: 0x1000074C4, symSize: 0x8C }
  - { offsetInCU: 0x39C84, offset: 0x39C84, size: 0x8, addend: 0x0, symName: __ZNSt3__114__split_bufferIPN7sc_core15sc_signal_in_ifIN5sc_dt7sc_uintILi32EEEEERNS_9allocatorIS7_EEE5clearB8ue170006Ev, symObjAddr: 0x5C94, symBinAddr: 0x100007550, symSize: 0x28 }
  - { offsetInCU: 0x39CAA, offset: 0x39CAA, size: 0x8, addend: 0x0, symName: __ZNKSt3__114__split_bufferIPN7sc_core15sc_signal_in_ifIN5sc_dt7sc_uintILi32EEEEERNS_9allocatorIS7_EEE8capacityB8ue170006Ev, symObjAddr: 0x5CBC, symBinAddr: 0x100007578, symSize: 0x40 }
  - { offsetInCU: 0x39CD0, offset: 0x39CD0, size: 0x8, addend: 0x0, symName: __ZNSt3__114__split_bufferIPN7sc_core15sc_signal_in_ifIN5sc_dt7sc_uintILi32EEEEERNS_9allocatorIS7_EEE17__destruct_at_endB8ue170006EPS7_, symObjAddr: 0x5CFC, symBinAddr: 0x1000075B8, symSize: 0x2C }
  - { offsetInCU: 0x39D04, offset: 0x39D04, size: 0x8, addend: 0x0, symName: __ZNSt3__114__split_bufferIPN7sc_core15sc_signal_in_ifIN5sc_dt7sc_uintILi32EEEEERNS_9allocatorIS7_EEE17__destruct_at_endB8ue170006EPS7_NS_17integral_constantIbLb0EEE, symObjAddr: 0x5D28, symBinAddr: 0x1000075E4, symSize: 0x80 }
  - { offsetInCU: 0x39D45, offset: 0x39D45, size: 0x8, addend: 0x0, symName: __ZNKSt3__114__split_bufferIPN7sc_core15sc_signal_in_ifIN5sc_dt7sc_uintILi32EEEEERNS_9allocatorIS7_EEE9__end_capB8ue170006Ev, symObjAddr: 0x5DA8, symBinAddr: 0x100007664, symSize: 0x28 }
  - { offsetInCU: 0x39D6B, offset: 0x39D6B, size: 0x8, addend: 0x0, symName: __ZNKSt3__117__compressed_pairIPPN7sc_core15sc_signal_in_ifIN5sc_dt7sc_uintILi32EEEEERNS_9allocatorIS7_EEE5firstB8ue170006Ev, symObjAddr: 0x5DD0, symBinAddr: 0x10000768C, symSize: 0x24 }
  - { offsetInCU: 0x39D91, offset: 0x39D91, size: 0x8, addend: 0x0, symName: __ZNKSt3__16vectorIPN7sc_core15sc_signal_in_ifIN5sc_dt7sc_uintILi32EEEEENS_9allocatorIS7_EEEixB8ue170006Em, symObjAddr: 0x5DF4, symBinAddr: 0x1000076B0, symSize: 0x24 }
  - { offsetInCU: 0x39DC8, offset: 0x39DC8, size: 0x8, addend: 0x0, symName: __ZNK7sc_core15sc_signal_in_ifIbE8is_resetEv, symObjAddr: 0x5E18, symBinAddr: 0x1000076D4, symSize: 0x14 }
  - { offsetInCU: 0x39DEE, offset: 0x39DEE, size: 0x8, addend: 0x0, symName: __ZN7sc_core18sc_signal_inout_ifIbED1Ev, symObjAddr: 0x5E2C, symBinAddr: 0x1000076E8, symSize: 0x14 }
  - { offsetInCU: 0x39E1A, offset: 0x39E1A, size: 0x8, addend: 0x0, symName: __ZN7sc_core18sc_signal_inout_ifIbED0Ev, symObjAddr: 0x5E40, symBinAddr: 0x1000076FC, symSize: 0xC }
  - { offsetInCU: 0x39E46, offset: 0x39E46, size: 0x8, addend: 0x0, symName: __ZThn8_N7sc_core18sc_signal_inout_ifIbED1Ev, symObjAddr: 0x5E4C, symBinAddr: 0x100007708, symSize: 0x1C }
  - { offsetInCU: 0x39E5C, offset: 0x39E5C, size: 0x8, addend: 0x0, symName: __ZThn8_N7sc_core18sc_signal_inout_ifIbED0Ev, symObjAddr: 0x5E68, symBinAddr: 0x100007724, symSize: 0x18 }
  - { offsetInCU: 0x39E72, offset: 0x39E72, size: 0x8, addend: 0x0, symName: __ZNK7sc_core18sc_signal_write_ifIbE17get_writer_policyEv, symObjAddr: 0x5E80, symBinAddr: 0x10000773C, symSize: 0x14 }
  - { offsetInCU: 0x39E98, offset: 0x39E98, size: 0x8, addend: 0x0, symName: __ZN7sc_core15sc_signal_in_ifIbED1Ev, symObjAddr: 0x5E94, symBinAddr: 0x100007750, symSize: 0x14 }
  - { offsetInCU: 0x39EC4, offset: 0x39EC4, size: 0x8, addend: 0x0, symName: __ZN7sc_core15sc_signal_in_ifIbED0Ev, symObjAddr: 0x5EA8, symBinAddr: 0x100007764, symSize: 0xC }
  - { offsetInCU: 0x39EF0, offset: 0x39EF0, size: 0x8, addend: 0x0, symName: __ZN7sc_core18sc_signal_write_ifIbED1Ev, symObjAddr: 0x5EB4, symBinAddr: 0x100007770, symSize: 0x14 }
  - { offsetInCU: 0x39F1C, offset: 0x39F1C, size: 0x8, addend: 0x0, symName: __ZN7sc_core18sc_signal_write_ifIbED0Ev, symObjAddr: 0x5EC8, symBinAddr: 0x100007784, symSize: 0xC }
  - { offsetInCU: 0x39F48, offset: 0x39F48, size: 0x8, addend: 0x0, symName: __ZTv0_n40_N7sc_core18sc_signal_write_ifIbED1Ev, symObjAddr: 0x5ED4, symBinAddr: 0x100007790, symSize: 0x28 }
  - { offsetInCU: 0x39F5E, offset: 0x39F5E, size: 0x8, addend: 0x0, symName: __ZTv0_n40_N7sc_core18sc_signal_write_ifIbED0Ev, symObjAddr: 0x5EFC, symBinAddr: 0x1000077B8, symSize: 0x20 }
  - { offsetInCU: 0x39F74, offset: 0x39F74, size: 0x8, addend: 0x0, symName: __ZNK7sc_core9sc_signalIbLNS_16sc_writer_policyE0EE7posedgeEv, symObjAddr: 0x5F1C, symBinAddr: 0x1000077D8, symSize: 0x58 }
  - { offsetInCU: 0x39F9A, offset: 0x39F9A, size: 0x8, addend: 0x0, symName: __ZNK7sc_core9sc_signalIbLNS_16sc_writer_policyE0EE7negedgeEv, symObjAddr: 0x5F74, symBinAddr: 0x100007830, symSize: 0x5C }
  - { offsetInCU: 0x39FC0, offset: 0x39FC0, size: 0x8, addend: 0x0, symName: __ZNK7sc_core9sc_signalIbLNS_16sc_writer_policyE0EE8is_clockEv, symObjAddr: 0x5FD0, symBinAddr: 0x10000788C, symSize: 0x18 }
  - { offsetInCU: 0x39FE6, offset: 0x39FE6, size: 0x8, addend: 0x0, symName: __ZTv0_n40_N7sc_core18sc_signal_inout_ifIbED1Ev, symObjAddr: 0x5FE8, symBinAddr: 0x1000078A4, symSize: 0x28 }
  - { offsetInCU: 0x39FFC, offset: 0x39FFC, size: 0x8, addend: 0x0, symName: __ZTv0_n40_N7sc_core18sc_signal_inout_ifIbED0Ev, symObjAddr: 0x6010, symBinAddr: 0x1000078CC, symSize: 0x20 }
  - { offsetInCU: 0x3A012, offset: 0x3A012, size: 0x8, addend: 0x0, symName: __ZTv0_n40_N7sc_core15sc_signal_in_ifIbED1Ev, symObjAddr: 0x6030, symBinAddr: 0x1000078EC, symSize: 0x28 }
  - { offsetInCU: 0x3A028, offset: 0x3A028, size: 0x8, addend: 0x0, symName: __ZTv0_n40_N7sc_core15sc_signal_in_ifIbED0Ev, symObjAddr: 0x6058, symBinAddr: 0x100007914, symSize: 0x20 }
  - { offsetInCU: 0x3A03E, offset: 0x3A03E, size: 0x8, addend: 0x0, symName: __ZN5sc_dt7sc_uintILi32EEC1Ev, symObjAddr: 0x6078, symBinAddr: 0x100007934, symSize: 0x2C }
  - { offsetInCU: 0x3A068, offset: 0x3A068, size: 0x8, addend: 0x0, symName: __ZN7sc_core11sc_signal_tIN5sc_dt7sc_uintILi32EEELNS_16sc_writer_policyE0EEC2EPKcRKS3_, symObjAddr: 0x60A4, symBinAddr: 0x100007960, symSize: 0x158 }
  - { offsetInCU: 0x3A0BB, offset: 0x3A0BB, size: 0x8, addend: 0x0, symName: __ZN7sc_core11sc_signal_tIN5sc_dt7sc_uintILi32EEELNS_16sc_writer_policyE0EE13register_portERNS_12sc_port_baseEPKc, symObjAddr: 0x61FC, symBinAddr: 0x100007AB8, symSize: 0xA0 }
  - { offsetInCU: 0x3A10E, offset: 0x3A10E, size: 0x8, addend: 0x0, symName: __ZNK7sc_core11sc_signal_tIN5sc_dt7sc_uintILi32EEELNS_16sc_writer_policyE0EE13default_eventEv, symObjAddr: 0x629C, symBinAddr: 0x100007B58, symSize: 0x2C }
  - { offsetInCU: 0x3A134, offset: 0x3A134, size: 0x8, addend: 0x0, symName: __ZN7sc_core11sc_signal_tIN5sc_dt7sc_uintILi32EEELNS_16sc_writer_policyE0EED1Ev, symObjAddr: 0x62C8, symBinAddr: 0x100007B84, symSize: 0x3C }
  - { offsetInCU: 0x3A15E, offset: 0x3A15E, size: 0x8, addend: 0x0, symName: __ZN7sc_core11sc_signal_tIN5sc_dt7sc_uintILi32EEELNS_16sc_writer_policyE0EED0Ev, symObjAddr: 0x6304, symBinAddr: 0x100007BC0, symSize: 0x30 }
  - { offsetInCU: 0x3A188, offset: 0x3A188, size: 0x8, addend: 0x0, symName: __ZNK7sc_core11sc_signal_tIN5sc_dt7sc_uintILi32EEELNS_16sc_writer_policyE0EE19value_changed_eventEv, symObjAddr: 0x6334, symBinAddr: 0x100007BF0, symSize: 0x28 }
  - { offsetInCU: 0x3A1AE, offset: 0x3A1AE, size: 0x8, addend: 0x0, symName: __ZNK7sc_core11sc_signal_tIN5sc_dt7sc_uintILi32EEELNS_16sc_writer_policyE0EE4readEv, symObjAddr: 0x635C, symBinAddr: 0x100007C18, symSize: 0x18 }
  - { offsetInCU: 0x3A1D4, offset: 0x3A1D4, size: 0x8, addend: 0x0, symName: __ZNK7sc_core11sc_signal_tIN5sc_dt7sc_uintILi32EEELNS_16sc_writer_policyE0EE12get_data_refEv, symObjAddr: 0x6374, symBinAddr: 0x100007C30, symSize: 0x34 }
  - { offsetInCU: 0x3A1FA, offset: 0x3A1FA, size: 0x8, addend: 0x0, symName: __ZNK7sc_core11sc_signal_tIN5sc_dt7sc_uintILi32EEELNS_16sc_writer_policyE0EE5eventEv, symObjAddr: 0x63A8, symBinAddr: 0x100007C64, symSize: 0x2C }
  - { offsetInCU: 0x3A220, offset: 0x3A220, size: 0x8, addend: 0x0, symName: __ZNK7sc_core11sc_signal_tIN5sc_dt7sc_uintILi32EEELNS_16sc_writer_policyE0EE4kindEv, symObjAddr: 0x63D4, symBinAddr: 0x100007C90, symSize: 0x18 }
  - { offsetInCU: 0x3A246, offset: 0x3A246, size: 0x8, addend: 0x0, symName: __ZNK7sc_core11sc_signal_tIN5sc_dt7sc_uintILi32EEELNS_16sc_writer_policyE0EE17get_writer_policyEv, symObjAddr: 0x63EC, symBinAddr: 0x100007CA8, symSize: 0x14 }
  - { offsetInCU: 0x3A26C, offset: 0x3A26C, size: 0x8, addend: 0x0, symName: __ZN7sc_core11sc_signal_tIN5sc_dt7sc_uintILi32EEELNS_16sc_writer_policyE0EE5writeERKS3_, symObjAddr: 0x6400, symBinAddr: 0x100007CBC, symSize: 0xAC }
  - { offsetInCU: 0x3A2B1, offset: 0x3A2B1, size: 0x8, addend: 0x0, symName: __ZNK7sc_core11sc_signal_tIN5sc_dt7sc_uintILi32EEELNS_16sc_writer_policyE0EE5traceEPNS_13sc_trace_fileE, symObjAddr: 0x64AC, symBinAddr: 0x100007D68, symSize: 0x44 }
  - { offsetInCU: 0x3A2E5, offset: 0x3A2E5, size: 0x8, addend: 0x0, symName: __ZNK7sc_core11sc_signal_tIN5sc_dt7sc_uintILi32EEELNS_16sc_writer_policyE0EE5printERNSt3__113basic_ostreamIcNS6_11char_traitsIcEEEE, symObjAddr: 0x64F0, symBinAddr: 0x100007DAC, symSize: 0x30 }
  - { offsetInCU: 0x3A31B, offset: 0x3A31B, size: 0x8, addend: 0x0, symName: __ZNK7sc_core11sc_signal_tIN5sc_dt7sc_uintILi32EEELNS_16sc_writer_policyE0EE4dumpERNSt3__113basic_ostreamIcNS6_11char_traitsIcEEEE, symObjAddr: 0x6520, symBinAddr: 0x100007DDC, symSize: 0xAC }
  - { offsetInCU: 0x3A351, offset: 0x3A351, size: 0x8, addend: 0x0, symName: __ZN7sc_core11sc_signal_tIN5sc_dt7sc_uintILi32EEELNS_16sc_writer_policyE0EE6updateEv, symObjAddr: 0x65CC, symBinAddr: 0x100007E88, symSize: 0x54 }
  - { offsetInCU: 0x3A379, offset: 0x3A379, size: 0x8, addend: 0x0, symName: __ZThn8_N7sc_core11sc_signal_tIN5sc_dt7sc_uintILi32EEELNS_16sc_writer_policyE0EED1Ev, symObjAddr: 0x6620, symBinAddr: 0x100007EDC, symSize: 0x1C }
  - { offsetInCU: 0x3A38F, offset: 0x3A38F, size: 0x8, addend: 0x0, symName: __ZThn8_N7sc_core11sc_signal_tIN5sc_dt7sc_uintILi32EEELNS_16sc_writer_policyE0EED0Ev, symObjAddr: 0x663C, symBinAddr: 0x100007EF8, symSize: 0x18 }
  - { offsetInCU: 0x3A3A5, offset: 0x3A3A5, size: 0x8, addend: 0x0, symName: __ZThn8_N7sc_core11sc_signal_tIN5sc_dt7sc_uintILi32EEELNS_16sc_writer_policyE0EE5writeERKS3_, symObjAddr: 0x6654, symBinAddr: 0x100007F10, symSize: 0x20 }
  - { offsetInCU: 0x3A3BB, offset: 0x3A3BB, size: 0x8, addend: 0x0, symName: __ZThn8_NK7sc_core11sc_signal_tIN5sc_dt7sc_uintILi32EEELNS_16sc_writer_policyE0EE17get_writer_policyEv, symObjAddr: 0x6674, symBinAddr: 0x100007F30, symSize: 0x18 }
  - { offsetInCU: 0x3A3D1, offset: 0x3A3D1, size: 0x8, addend: 0x0, symName: __ZN7sc_core18sc_signal_inout_ifIN5sc_dt7sc_uintILi32EEEED1Ev, symObjAddr: 0x668C, symBinAddr: 0x100007F48, symSize: 0x14 }
  - { offsetInCU: 0x3A3FD, offset: 0x3A3FD, size: 0x8, addend: 0x0, symName: __ZN7sc_core18sc_signal_inout_ifIN5sc_dt7sc_uintILi32EEEED0Ev, symObjAddr: 0x66A0, symBinAddr: 0x100007F5C, symSize: 0xC }
  - { offsetInCU: 0x3A429, offset: 0x3A429, size: 0x8, addend: 0x0, symName: __ZThn8_N7sc_core18sc_signal_inout_ifIN5sc_dt7sc_uintILi32EEEED1Ev, symObjAddr: 0x66AC, symBinAddr: 0x100007F68, symSize: 0x1C }
  - { offsetInCU: 0x3A43F, offset: 0x3A43F, size: 0x8, addend: 0x0, symName: __ZThn8_N7sc_core18sc_signal_inout_ifIN5sc_dt7sc_uintILi32EEEED0Ev, symObjAddr: 0x66C8, symBinAddr: 0x100007F84, symSize: 0x18 }
  - { offsetInCU: 0x3A455, offset: 0x3A455, size: 0x8, addend: 0x0, symName: __ZNK7sc_core18sc_signal_write_ifIN5sc_dt7sc_uintILi32EEEE17get_writer_policyEv, symObjAddr: 0x66E0, symBinAddr: 0x100007F9C, symSize: 0x14 }
  - { offsetInCU: 0x3A47B, offset: 0x3A47B, size: 0x8, addend: 0x0, symName: __ZN7sc_core15sc_signal_in_ifIN5sc_dt7sc_uintILi32EEEED1Ev, symObjAddr: 0x66F4, symBinAddr: 0x100007FB0, symSize: 0x14 }
  - { offsetInCU: 0x3A4A7, offset: 0x3A4A7, size: 0x8, addend: 0x0, symName: __ZN7sc_core15sc_signal_in_ifIN5sc_dt7sc_uintILi32EEEED0Ev, symObjAddr: 0x6708, symBinAddr: 0x100007FC4, symSize: 0xC }
  - { offsetInCU: 0x3A4D3, offset: 0x3A4D3, size: 0x8, addend: 0x0, symName: __ZN7sc_core18sc_signal_write_ifIN5sc_dt7sc_uintILi32EEEED1Ev, symObjAddr: 0x6714, symBinAddr: 0x100007FD0, symSize: 0x14 }
  - { offsetInCU: 0x3A4FF, offset: 0x3A4FF, size: 0x8, addend: 0x0, symName: __ZN7sc_core18sc_signal_write_ifIN5sc_dt7sc_uintILi32EEEED0Ev, symObjAddr: 0x6728, symBinAddr: 0x100007FE4, symSize: 0xC }
  - { offsetInCU: 0x3A52B, offset: 0x3A52B, size: 0x8, addend: 0x0, symName: __ZTv0_n40_N7sc_core18sc_signal_write_ifIN5sc_dt7sc_uintILi32EEEED1Ev, symObjAddr: 0x6734, symBinAddr: 0x100007FF0, symSize: 0x28 }
  - { offsetInCU: 0x3A541, offset: 0x3A541, size: 0x8, addend: 0x0, symName: __ZTv0_n40_N7sc_core18sc_signal_write_ifIN5sc_dt7sc_uintILi32EEEED0Ev, symObjAddr: 0x675C, symBinAddr: 0x100008018, symSize: 0x20 }
  - { offsetInCU: 0x3A557, offset: 0x3A557, size: 0x8, addend: 0x0, symName: __ZN7sc_core9sc_signalIN5sc_dt7sc_uintILi32EEELNS_16sc_writer_policyE0EED0Ev, symObjAddr: 0x677C, symBinAddr: 0x100008038, symSize: 0x30 }
  - { offsetInCU: 0x3A581, offset: 0x3A581, size: 0x8, addend: 0x0, symName: __ZThn8_N7sc_core9sc_signalIN5sc_dt7sc_uintILi32EEELNS_16sc_writer_policyE0EED1Ev, symObjAddr: 0x67AC, symBinAddr: 0x100008068, symSize: 0x1C }
  - { offsetInCU: 0x3A598, offset: 0x3A598, size: 0x8, addend: 0x0, symName: __ZThn8_N7sc_core9sc_signalIN5sc_dt7sc_uintILi32EEELNS_16sc_writer_policyE0EED0Ev, symObjAddr: 0x67C8, symBinAddr: 0x100008084, symSize: 0x18 }
  - { offsetInCU: 0x3A5AF, offset: 0x3A5AF, size: 0x8, addend: 0x0, symName: __ZThn16_NK7sc_core11sc_signal_tIN5sc_dt7sc_uintILi32EEELNS_16sc_writer_policyE0EE5printERNSt3__113basic_ostreamIcNS6_11char_traitsIcEEEE, symObjAddr: 0x67E0, symBinAddr: 0x10000809C, symSize: 0x20 }
  - { offsetInCU: 0x3A5C5, offset: 0x3A5C5, size: 0x8, addend: 0x0, symName: __ZThn16_NK7sc_core11sc_signal_tIN5sc_dt7sc_uintILi32EEELNS_16sc_writer_policyE0EE4dumpERNSt3__113basic_ostreamIcNS6_11char_traitsIcEEEE, symObjAddr: 0x6800, symBinAddr: 0x1000080BC, symSize: 0x20 }
  - { offsetInCU: 0x3A5DB, offset: 0x3A5DB, size: 0x8, addend: 0x0, symName: __ZThn16_NK7sc_core11sc_signal_tIN5sc_dt7sc_uintILi32EEELNS_16sc_writer_policyE0EE5traceEPNS_13sc_trace_fileE, symObjAddr: 0x6820, symBinAddr: 0x1000080DC, symSize: 0x20 }
  - { offsetInCU: 0x3A5F1, offset: 0x3A5F1, size: 0x8, addend: 0x0, symName: __ZThn16_NK7sc_core11sc_signal_tIN5sc_dt7sc_uintILi32EEELNS_16sc_writer_policyE0EE4kindEv, symObjAddr: 0x6840, symBinAddr: 0x1000080FC, symSize: 0x18 }
  - { offsetInCU: 0x3A607, offset: 0x3A607, size: 0x8, addend: 0x0, symName: __ZThn16_N7sc_core9sc_signalIN5sc_dt7sc_uintILi32EEELNS_16sc_writer_policyE0EED1Ev, symObjAddr: 0x6858, symBinAddr: 0x100008114, symSize: 0x1C }
  - { offsetInCU: 0x3A61E, offset: 0x3A61E, size: 0x8, addend: 0x0, symName: __ZThn16_N7sc_core9sc_signalIN5sc_dt7sc_uintILi32EEELNS_16sc_writer_policyE0EED0Ev, symObjAddr: 0x6874, symBinAddr: 0x100008130, symSize: 0x18 }
  - { offsetInCU: 0x3A635, offset: 0x3A635, size: 0x8, addend: 0x0, symName: __ZThn16_N7sc_core11sc_signal_tIN5sc_dt7sc_uintILi32EEELNS_16sc_writer_policyE0EE6updateEv, symObjAddr: 0x688C, symBinAddr: 0x100008148, symSize: 0x18 }
  - { offsetInCU: 0x3A64C, offset: 0x3A64C, size: 0x8, addend: 0x0, symName: __ZN5sc_dt7sc_uintILi32EEC2Ev, symObjAddr: 0x68A4, symBinAddr: 0x100008160, symSize: 0x48 }
  - { offsetInCU: 0x3A676, offset: 0x3A676, size: 0x8, addend: 0x0, symName: __ZN5sc_dt12sc_uint_baseC2Ei, symObjAddr: 0x68EC, symBinAddr: 0x1000081A8, symSize: 0x94 }
  - { offsetInCU: 0x3A6AF, offset: 0x3A6AF, size: 0x8, addend: 0x0, symName: __ZNK5sc_dt12sc_uint_base17concat_get_uint64Ev, symObjAddr: 0x6980, symBinAddr: 0x10000823C, symSize: 0x18 }
  - { offsetInCU: 0x3A6D5, offset: 0x3A6D5, size: 0x8, addend: 0x0, symName: __ZNK5sc_dt12sc_uint_base13concat_lengthEPb, symObjAddr: 0x6998, symBinAddr: 0x100008254, symSize: 0x50 }
  - { offsetInCU: 0x3A70A, offset: 0x3A70A, size: 0x8, addend: 0x0, symName: __ZN5sc_dt7sc_uintILi32EED0Ev, symObjAddr: 0x69E8, symBinAddr: 0x1000082A4, symSize: 0x30 }
  - { offsetInCU: 0x3A736, offset: 0x3A736, size: 0x8, addend: 0x0, symName: __ZN5sc_dt13sc_value_baseC2Ev, symObjAddr: 0x6A18, symBinAddr: 0x1000082D4, symSize: 0x24 }
  - { offsetInCU: 0x3A762, offset: 0x3A762, size: 0x8, addend: 0x0, symName: __ZNK5sc_dt12sc_uint_base12check_lengthEv, symObjAddr: 0x6A3C, symBinAddr: 0x1000082F8, symSize: 0x5C }
  - { offsetInCU: 0x3A788, offset: 0x3A788, size: 0x8, addend: 0x0, symName: __ZNK5sc_dt12sc_uint_base6lengthEv, symObjAddr: 0x6A98, symBinAddr: 0x100008354, symSize: 0x18 }
  - { offsetInCU: 0x3A7AE, offset: 0x3A7AE, size: 0x8, addend: 0x0, symName: __ZN7sc_core18sc_signal_inout_ifIN5sc_dt7sc_uintILi32EEEEC2Ev, symObjAddr: 0x6AB0, symBinAddr: 0x10000836C, symSize: 0xA4 }
  - { offsetInCU: 0x3A7E5, offset: 0x3A7E5, size: 0x8, addend: 0x0, symName: __ZN7sc_core17sc_signal_channelC2EPKc, symObjAddr: 0x6B54, symBinAddr: 0x100008410, symSize: 0x58 }
  - { offsetInCU: 0x3A822, offset: 0x3A822, size: 0x8, addend: 0x0, symName: __ZN7sc_core22sc_writer_policy_checkILNS_16sc_writer_policyE0EEC2Ev, symObjAddr: 0x6BAC, symBinAddr: 0x100008468, symSize: 0x44 }
  - { offsetInCU: 0x3A84E, offset: 0x3A84E, size: 0x8, addend: 0x0, symName: __ZN5sc_dt7sc_uintILi32EEC1ERKS1_, symObjAddr: 0x6BF0, symBinAddr: 0x1000084AC, symSize: 0x34 }
  - { offsetInCU: 0x3A886, offset: 0x3A886, size: 0x8, addend: 0x0, symName: __ZN7sc_core22sc_writer_policy_checkILNS_16sc_writer_policyE0EED2Ev, symObjAddr: 0x6C24, symBinAddr: 0x1000084E0, symSize: 0x30 }
  - { offsetInCU: 0x3A8B2, offset: 0x3A8B2, size: 0x8, addend: 0x0, symName: __ZN7sc_core18sc_signal_inout_ifIN5sc_dt7sc_uintILi32EEEED2Ev, symObjAddr: 0x6C54, symBinAddr: 0x100008510, symSize: 0x50 }
  - { offsetInCU: 0x3A8EB, offset: 0x3A8EB, size: 0x8, addend: 0x0, symName: __ZThn16_N7sc_core11sc_signal_tIN5sc_dt7sc_uintILi32EEELNS_16sc_writer_policyE0EED1Ev, symObjAddr: 0x6CA4, symBinAddr: 0x100008560, symSize: 0x1C }
  - { offsetInCU: 0x3A901, offset: 0x3A901, size: 0x8, addend: 0x0, symName: __ZThn16_N7sc_core11sc_signal_tIN5sc_dt7sc_uintILi32EEELNS_16sc_writer_policyE0EED0Ev, symObjAddr: 0x6CC0, symBinAddr: 0x10000857C, symSize: 0x18 }
  - { offsetInCU: 0x3A917, offset: 0x3A917, size: 0x8, addend: 0x0, symName: __ZN7sc_core15sc_signal_in_ifIN5sc_dt7sc_uintILi32EEEEC2Ev, symObjAddr: 0x6CD8, symBinAddr: 0x100008594, symSize: 0x34 }
  - { offsetInCU: 0x3A94E, offset: 0x3A94E, size: 0x8, addend: 0x0, symName: __ZN7sc_core18sc_signal_write_ifIN5sc_dt7sc_uintILi32EEEEC2Ev, symObjAddr: 0x6D0C, symBinAddr: 0x1000085C8, symSize: 0x34 }
  - { offsetInCU: 0x3A985, offset: 0x3A985, size: 0x8, addend: 0x0, symName: __ZN7sc_core15sc_signal_in_ifIN5sc_dt7sc_uintILi32EEEED2Ev, symObjAddr: 0x6D40, symBinAddr: 0x1000085FC, symSize: 0x18 }
  - { offsetInCU: 0x3A9BE, offset: 0x3A9BE, size: 0x8, addend: 0x0, symName: __ZN7sc_core27sc_writer_policy_check_portC2Ev, symObjAddr: 0x6D58, symBinAddr: 0x100008614, symSize: 0x18 }
  - { offsetInCU: 0x3A9E8, offset: 0x3A9E8, size: 0x8, addend: 0x0, symName: __ZN7sc_core28sc_writer_policy_check_writeC2Eb, symObjAddr: 0x6D70, symBinAddr: 0x10000862C, symSize: 0x48 }
  - { offsetInCU: 0x3AA20, offset: 0x3AA20, size: 0x8, addend: 0x0, symName: __ZN7sc_core17sc_process_handleC1Ev, symObjAddr: 0x6DB8, symBinAddr: 0x100008674, symSize: 0x2C }
  - { offsetInCU: 0x3AA4B, offset: 0x3AA4B, size: 0x8, addend: 0x0, symName: __ZN7sc_core17sc_process_handleC2Ev, symObjAddr: 0x6DE4, symBinAddr: 0x1000086A0, symSize: 0x18 }
  - { offsetInCU: 0x3AA76, offset: 0x3AA76, size: 0x8, addend: 0x0, symName: __ZN5sc_dt7sc_uintILi32EEC2ERKS1_, symObjAddr: 0x6DFC, symBinAddr: 0x1000086B8, symSize: 0x4C }
  - { offsetInCU: 0x3AAAE, offset: 0x3AAAE, size: 0x8, addend: 0x0, symName: __ZN5sc_dt12sc_uint_baseC2ERKS0_, symObjAddr: 0x6E48, symBinAddr: 0x100008704, symSize: 0x70 }
  - { offsetInCU: 0x3AAED, offset: 0x3AAED, size: 0x8, addend: 0x0, symName: __ZN5sc_dt13sc_value_baseC2ERKS0_, symObjAddr: 0x6EB8, symBinAddr: 0x100008774, symSize: 0x28 }
  - { offsetInCU: 0x3AB22, offset: 0x3AB22, size: 0x8, addend: 0x0, symName: __ZN7sc_core28sc_writer_policy_check_writeD2Ev, symObjAddr: 0x6EE0, symBinAddr: 0x10000879C, symSize: 0x30 }
  - { offsetInCU: 0x3AB4E, offset: 0x3AB4E, size: 0x8, addend: 0x0, symName: __ZN7sc_core17sc_process_handleD1Ev, symObjAddr: 0x6F10, symBinAddr: 0x1000087CC, symSize: 0x2C }
  - { offsetInCU: 0x3AB7A, offset: 0x3AB7A, size: 0x8, addend: 0x0, symName: __ZN7sc_core17sc_process_handleD2Ev, symObjAddr: 0x6F3C, symBinAddr: 0x1000087F8, symSize: 0x5C }
  - { offsetInCU: 0x3ABA6, offset: 0x3ABA6, size: 0x8, addend: 0x0, symName: __ZN7sc_core12sc_process_b19reference_decrementEv, symObjAddr: 0x6F98, symBinAddr: 0x100008854, symSize: 0x50 }
  - { offsetInCU: 0x3ABCE, offset: 0x3ABCE, size: 0x8, addend: 0x0, symName: __ZN7sc_core18sc_signal_write_ifIN5sc_dt7sc_uintILi32EEEED2Ev, symObjAddr: 0x6FE8, symBinAddr: 0x1000088A4, symSize: 0x18 }
  - { offsetInCU: 0x3AC0C, offset: 0x3AC0C, size: 0x8, addend: 0x0, symName: __ZNSt3__112basic_stringIcNS_11char_traitsIcEENS_9allocatorIcEEEC1B8ue170006ILi0EEEPKc, symObjAddr: 0x70AC, symBinAddr: 0x100008968, symSize: 0x34 }
  - { offsetInCU: 0x3AC5F, offset: 0x3AC5F, size: 0x8, addend: 0x0, symName: __ZNKSt9type_info4nameB8ue170006Ev, symObjAddr: 0x70E0, symBinAddr: 0x10000899C, symSize: 0x24 }
  - { offsetInCU: 0x3ACA5, offset: 0x3ACA5, size: 0x8, addend: 0x0, symName: __ZTv0_n24_N7sc_core11sc_signal_tIN5sc_dt7sc_uintILi32EEELNS_16sc_writer_policyE0EE13register_portERNS_12sc_port_baseEPKc, symObjAddr: 0x7104, symBinAddr: 0x1000089C0, symSize: 0x30 }
  - { offsetInCU: 0x3ACBB, offset: 0x3ACBB, size: 0x8, addend: 0x0, symName: __ZNSt3__111char_traitsIcE6lengthB8ue170006EPKc, symObjAddr: 0x7134, symBinAddr: 0x1000089F0, symSize: 0x34 }
  - { offsetInCU: 0x3ACDE, offset: 0x3ACDE, size: 0x8, addend: 0x0, symName: __ZNKSt3__112basic_stringIcNS_11char_traitsIcEENS_9allocatorIcEEE4sizeB8ue170006Ev, symObjAddr: 0x7168, symBinAddr: 0x100008A24, symSize: 0x54 }
  - { offsetInCU: 0x3AD04, offset: 0x3AD04, size: 0x8, addend: 0x0, symName: __ZNKSt3__112basic_stringIcNS_11char_traitsIcEENS_9allocatorIcEEE9__is_longB8ue170006Ev, symObjAddr: 0x71E0, symBinAddr: 0x100008A9C, symSize: 0x38 }
  - { offsetInCU: 0x3AD2A, offset: 0x3AD2A, size: 0x8, addend: 0x0, symName: __ZNKSt3__112basic_stringIcNS_11char_traitsIcEENS_9allocatorIcEEE15__get_long_sizeB8ue170006Ev, symObjAddr: 0x7218, symBinAddr: 0x100008AD4, symSize: 0x28 }
  - { offsetInCU: 0x3AD50, offset: 0x3AD50, size: 0x8, addend: 0x0, symName: __ZNKSt3__112basic_stringIcNS_11char_traitsIcEENS_9allocatorIcEEE16__get_short_sizeB8ue170006Ev, symObjAddr: 0x7240, symBinAddr: 0x100008AFC, symSize: 0x34 }
  - { offsetInCU: 0x3AD76, offset: 0x3AD76, size: 0x8, addend: 0x0, symName: __ZNKSt3__117__compressed_pairINS_12basic_stringIcNS_11char_traitsIcEENS_9allocatorIcEEE5__repES5_E5firstB8ue170006Ev, symObjAddr: 0x7274, symBinAddr: 0x100008B30, symSize: 0x24 }
  - { offsetInCU: 0x3AD9C, offset: 0x3AD9C, size: 0x8, addend: 0x0, symName: __ZNKSt3__122__compressed_pair_elemINS_12basic_stringIcNS_11char_traitsIcEENS_9allocatorIcEEE5__repELi0ELb0EE5__getB8ue170006Ev, symObjAddr: 0x7298, symBinAddr: 0x100008B54, symSize: 0x14 }
  - { offsetInCU: 0x3ADC2, offset: 0x3ADC2, size: 0x8, addend: 0x0, symName: __ZNSt3__112basic_stringIcNS_11char_traitsIcEENS_9allocatorIcEEEC2B8ue170006ILi0EEEPKc, symObjAddr: 0x72AC, symBinAddr: 0x100008B68, symSize: 0x58 }
  - { offsetInCU: 0x3AE07, offset: 0x3AE07, size: 0x8, addend: 0x0, symName: __ZNSt3__117__compressed_pairINS_12basic_stringIcNS_11char_traitsIcEENS_9allocatorIcEEE5__repES5_EC1B8ue170006INS_18__default_init_tagESA_EEOT_OT0_, symObjAddr: 0x7304, symBinAddr: 0x100008BC0, symSize: 0x3C }
  - { offsetInCU: 0x3AE5F, offset: 0x3AE5F, size: 0x8, addend: 0x0, symName: __ZNSt3__117__compressed_pairINS_12basic_stringIcNS_11char_traitsIcEENS_9allocatorIcEEE5__repES5_EC2B8ue170006INS_18__default_init_tagESA_EEOT_OT0_, symObjAddr: 0x7340, symBinAddr: 0x100008BFC, symSize: 0x3C }
  - { offsetInCU: 0x3AEB7, offset: 0x3AEB7, size: 0x8, addend: 0x0, symName: __ZNSt3__122__compressed_pair_elemINS_12basic_stringIcNS_11char_traitsIcEENS_9allocatorIcEEE5__repELi0ELb0EEC2B8ue170006ENS_18__default_init_tagE, symObjAddr: 0x737C, symBinAddr: 0x100008C38, symSize: 0x14 }
  - { offsetInCU: 0x3AEEC, offset: 0x3AEEC, size: 0x8, addend: 0x0, symName: __ZNSt3__122__compressed_pair_elemINS_9allocatorIcEELi1ELb1EEC2B8ue170006ENS_18__default_init_tagE, symObjAddr: 0x7390, symBinAddr: 0x100008C4C, symSize: 0x2C }
  - { offsetInCU: 0x3AF21, offset: 0x3AF21, size: 0x8, addend: 0x0, symName: __ZNSt3__19allocatorIcEC2B8ue170006Ev, symObjAddr: 0x73BC, symBinAddr: 0x100008C78, symSize: 0x2C }
  - { offsetInCU: 0x3AF4B, offset: 0x3AF4B, size: 0x8, addend: 0x0, symName: __ZNSt3__116__non_trivial_ifILb1ENS_9allocatorIcEEEC2B8ue170006Ev, symObjAddr: 0x73E8, symBinAddr: 0x100008CA4, symSize: 0x14 }
  - { offsetInCU: 0x3AF75, offset: 0x3AF75, size: 0x8, addend: 0x0, symName: __ZTv0_n32_NK7sc_core11sc_signal_tIN5sc_dt7sc_uintILi32EEELNS_16sc_writer_policyE0EE13default_eventEv, symObjAddr: 0x73FC, symBinAddr: 0x100008CB8, symSize: 0x20 }
  - { offsetInCU: 0x3AF8B, offset: 0x3AF8B, size: 0x8, addend: 0x0, symName: __ZN7sc_core11sc_signal_tIN5sc_dt7sc_uintILi32EEELNS_16sc_writer_policyE0EED2Ev, symObjAddr: 0x741C, symBinAddr: 0x100008CD8, symSize: 0x70 }
  - { offsetInCU: 0x3AFC2, offset: 0x3AFC2, size: 0x8, addend: 0x0, symName: __ZTv0_n40_N7sc_core11sc_signal_tIN5sc_dt7sc_uintILi32EEELNS_16sc_writer_policyE0EED1Ev, symObjAddr: 0x748C, symBinAddr: 0x100008D48, symSize: 0x28 }
  - { offsetInCU: 0x3AFD8, offset: 0x3AFD8, size: 0x8, addend: 0x0, symName: __ZTv0_n40_N7sc_core11sc_signal_tIN5sc_dt7sc_uintILi32EEELNS_16sc_writer_policyE0EED0Ev, symObjAddr: 0x74B4, symBinAddr: 0x100008D70, symSize: 0x20 }
  - { offsetInCU: 0x3AFEE, offset: 0x3AFEE, size: 0x8, addend: 0x0, symName: __ZNK7sc_core17sc_signal_channel5eventEv, symObjAddr: 0x74D4, symBinAddr: 0x100008D90, symSize: 0x38 }
  - { offsetInCU: 0x3B014, offset: 0x3B014, size: 0x8, addend: 0x0, symName: __ZNK7sc_core9sc_object10simcontextEv, symObjAddr: 0x750C, symBinAddr: 0x100008DC8, symSize: 0x18 }
  - { offsetInCU: 0x3B03A, offset: 0x3B03A, size: 0x8, addend: 0x0, symName: __ZNK7sc_core13sc_simcontext14event_occurredEy, symObjAddr: 0x7524, symBinAddr: 0x100008DE0, symSize: 0x2C }
  - { offsetInCU: 0x3B071, offset: 0x3B071, size: 0x8, addend: 0x0, symName: __ZN7sc_core28sc_writer_policy_check_write11check_writeEPNS_9sc_objectEb, symObjAddr: 0x7580, symBinAddr: 0x100008E3C, symSize: 0x170 }
  - { offsetInCU: 0x3B0C0, offset: 0x3B0C0, size: 0x8, addend: 0x0, symName: __ZN5sc_dt7sc_uintILi32EEaSERKS1_, symObjAddr: 0x76F0, symBinAddr: 0x100008FAC, symSize: 0x24 }
  - { offsetInCU: 0x3B0F4, offset: 0x3B0F4, size: 0x8, addend: 0x0, symName: __ZNK7sc_core28sc_writer_policy_check_write12needs_updateEv, symObjAddr: 0x7714, symBinAddr: 0x100008FD0, symSize: 0x1C }
  - { offsetInCU: 0x3B11A, offset: 0x3B11A, size: 0x8, addend: 0x0, symName: __ZN7sc_core15sc_prim_channel14request_updateEv, symObjAddr: 0x7730, symBinAddr: 0x100008FEC, symSize: 0x48 }
  - { offsetInCU: 0x3B142, offset: 0x3B142, size: 0x8, addend: 0x0, symName: __ZNK7sc_core13sc_simcontext18get_current_writerEv, symObjAddr: 0x7810, symBinAddr: 0x1000090CC, symSize: 0x18 }
  - { offsetInCU: 0x3B16A, offset: 0x3B16A, size: 0x8, addend: 0x0, symName: __ZNK7sc_core17sc_process_handle5validEv, symObjAddr: 0x7828, symBinAddr: 0x1000090E4, symSize: 0x34 }
  - { offsetInCU: 0x3B192, offset: 0x3B192, size: 0x8, addend: 0x0, symName: __ZN7sc_core17sc_process_handleC1EPNS_12sc_process_bE, symObjAddr: 0x785C, symBinAddr: 0x100009118, symSize: 0x34 }
  - { offsetInCU: 0x3B1CB, offset: 0x3B1CB, size: 0x8, addend: 0x0, symName: __ZN7sc_core17sc_process_handle4swapERS0_, symObjAddr: 0x7890, symBinAddr: 0x10000914C, symSize: 0x38 }
  - { offsetInCU: 0x3B211, offset: 0x3B211, size: 0x8, addend: 0x0, symName: __ZN7sc_core17sc_process_handlecvPNS_12sc_process_bEEv, symObjAddr: 0x78C8, symBinAddr: 0x100009184, symSize: 0x18 }
  - { offsetInCU: 0x3B237, offset: 0x3B237, size: 0x8, addend: 0x0, symName: __ZN7sc_core17sc_process_handleC2EPNS_12sc_process_bE, symObjAddr: 0x78E0, symBinAddr: 0x10000919C, symSize: 0x60 }
  - { offsetInCU: 0x3B270, offset: 0x3B270, size: 0x8, addend: 0x0, symName: __ZN7sc_core12sc_process_b19reference_incrementEv, symObjAddr: 0x7940, symBinAddr: 0x1000091FC, symSize: 0x64 }
  - { offsetInCU: 0x3B298, offset: 0x3B298, size: 0x8, addend: 0x0, symName: __ZN7sc_core24sc_prim_channel_registry14request_updateERNS_15sc_prim_channelE, symObjAddr: 0x79A4, symBinAddr: 0x100009260, symSize: 0x2C }
  - { offsetInCU: 0x3B2CF, offset: 0x3B2CF, size: 0x8, addend: 0x0, symName: __ZNK5sc_dt12sc_uint_base5printERNSt3__113basic_ostreamIcNS1_11char_traitsIcEEEE, symObjAddr: 0x7A00, symBinAddr: 0x1000092BC, symSize: 0x9C }
  - { offsetInCU: 0x3B304, offset: 0x3B304, size: 0x8, addend: 0x0, symName: __ZNKSt3__112basic_stringIcNS_11char_traitsIcEENS_9allocatorIcEEE4dataB8ue170006Ev, symObjAddr: 0x7DC0, symBinAddr: 0x10000967C, symSize: 0x28 }
  - { offsetInCU: 0x3B345, offset: 0x3B345, size: 0x8, addend: 0x0, symName: __ZNKSt3__113basic_ostreamIcNS_11char_traitsIcEEE6sentrycvbB8ue170006Ev, symObjAddr: 0x7DE8, symBinAddr: 0x1000096A4, symSize: 0x1C }
  - { offsetInCU: 0x3B36B, offset: 0x3B36B, size: 0x8, addend: 0x0, symName: __ZNSt3__119ostreambuf_iteratorIcNS_11char_traitsIcEEEC1B8ue170006ERNS_13basic_ostreamIcS2_EE, symObjAddr: 0x8044, symBinAddr: 0x100009900, symSize: 0x34 }
  - { offsetInCU: 0x3B3A3, offset: 0x3B3A3, size: 0x8, addend: 0x0, symName: __ZNKSt3__18ios_base5flagsB8ue170006Ev, symObjAddr: 0x8078, symBinAddr: 0x100009934, symSize: 0x18 }
  - { offsetInCU: 0x3B3CB, offset: 0x3B3CB, size: 0x8, addend: 0x0, symName: __ZNKSt3__19basic_iosIcNS_11char_traitsIcEEE4fillB8ue170006Ev, symObjAddr: 0x8090, symBinAddr: 0x10000994C, symSize: 0x64 }
  - { offsetInCU: 0x3B3F3, offset: 0x3B3F3, size: 0x8, addend: 0x0, symName: __ZNKSt3__119ostreambuf_iteratorIcNS_11char_traitsIcEEE6failedB8ue170006Ev, symObjAddr: 0x80F4, symBinAddr: 0x1000099B0, symSize: 0x24 }
  - { offsetInCU: 0x3B419, offset: 0x3B419, size: 0x8, addend: 0x0, symName: __ZNSt3__19basic_iosIcNS_11char_traitsIcEEE8setstateB8ue170006Ej, symObjAddr: 0x8118, symBinAddr: 0x1000099D4, symSize: 0x2C }
  - { offsetInCU: 0x3B44E, offset: 0x3B44E, size: 0x8, addend: 0x0, symName: __ZNKSt3__18ios_base5widthB8ue170006Ev, symObjAddr: 0x8144, symBinAddr: 0x100009A00, symSize: 0x18 }
  - { offsetInCU: 0x3B476, offset: 0x3B476, size: 0x8, addend: 0x0, symName: __ZNSt3__115basic_streambufIcNS_11char_traitsIcEEE5sputnB8ue170006EPKcl, symObjAddr: 0x815C, symBinAddr: 0x100009A18, symSize: 0x3C }
  - { offsetInCU: 0x3B4B8, offset: 0x3B4B8, size: 0x8, addend: 0x0, symName: __ZNSt3__112basic_stringIcNS_11char_traitsIcEENS_9allocatorIcEEEC1B8ue170006Emc, symObjAddr: 0x8198, symBinAddr: 0x100009A54, symSize: 0x3C }
  - { offsetInCU: 0x3B500, offset: 0x3B500, size: 0x8, addend: 0x0, symName: __ZNSt3__18ios_base5widthB8ue170006El, symObjAddr: 0x81D4, symBinAddr: 0x100009A90, symSize: 0x2C }
  - { offsetInCU: 0x3B546, offset: 0x3B546, size: 0x8, addend: 0x0, symName: __ZNSt3__112basic_stringIcNS_11char_traitsIcEENS_9allocatorIcEEEC2B8ue170006Emc, symObjAddr: 0x8200, symBinAddr: 0x100009ABC, symSize: 0x4C }
  - { offsetInCU: 0x3B58E, offset: 0x3B58E, size: 0x8, addend: 0x0, symName: __ZNSt3__119ostreambuf_iteratorIcNS_11char_traitsIcEEEC2B8ue170006ERNS_13basic_ostreamIcS2_EE, symObjAddr: 0x824C, symBinAddr: 0x100009B08, symSize: 0x54 }
  - { offsetInCU: 0x3B5C6, offset: 0x3B5C6, size: 0x8, addend: 0x0, symName: __ZNKSt3__19basic_iosIcNS_11char_traitsIcEEE5rdbufB8ue170006Ev, symObjAddr: 0x82A0, symBinAddr: 0x100009B5C, symSize: 0x24 }
  - { offsetInCU: 0x3B5EE, offset: 0x3B5EE, size: 0x8, addend: 0x0, symName: __ZNKSt3__18ios_base5rdbufB8ue170006Ev, symObjAddr: 0x82C4, symBinAddr: 0x100009B80, symSize: 0x18 }
  - { offsetInCU: 0x3B614, offset: 0x3B614, size: 0x8, addend: 0x0, symName: __ZNSt3__111char_traitsIcE11eq_int_typeB8ue170006Eii, symObjAddr: 0x82DC, symBinAddr: 0x100009B98, symSize: 0x28 }
  - { offsetInCU: 0x3B647, offset: 0x3B647, size: 0x8, addend: 0x0, symName: __ZNSt3__111char_traitsIcE3eofB8ue170006Ev, symObjAddr: 0x8304, symBinAddr: 0x100009BC0, symSize: 0x8 }
  - { offsetInCU: 0x3B65B, offset: 0x3B65B, size: 0x8, addend: 0x0, symName: __ZNKSt3__19basic_iosIcNS_11char_traitsIcEEE5widenB8ue170006Ec, symObjAddr: 0x830C, symBinAddr: 0x100009BC8, symSize: 0x84 }
  - { offsetInCU: 0x3B6C9, offset: 0x3B6C9, size: 0x8, addend: 0x0, symName: __ZNKSt3__15ctypeIcE5widenB8ue170006Ec, symObjAddr: 0x83BC, symBinAddr: 0x100009C78, symSize: 0x38 }
  - { offsetInCU: 0x3B6FE, offset: 0x3B6FE, size: 0x8, addend: 0x0, symName: __ZNSt3__18ios_base8setstateB8ue170006Ej, symObjAddr: 0x83F4, symBinAddr: 0x100009CB0, symSize: 0x34 }
  - { offsetInCU: 0x3B735, offset: 0x3B735, size: 0x8, addend: 0x0, symName: __ZNKSt3__112basic_stringIcNS_11char_traitsIcEENS_9allocatorIcEEE13__get_pointerB8ue170006Ev, symObjAddr: 0x843C, symBinAddr: 0x100009CF8, symSize: 0x54 }
  - { offsetInCU: 0x3B75B, offset: 0x3B75B, size: 0x8, addend: 0x0, symName: __ZNKSt3__112basic_stringIcNS_11char_traitsIcEENS_9allocatorIcEEE18__get_long_pointerB8ue170006Ev, symObjAddr: 0x8490, symBinAddr: 0x100009D4C, symSize: 0x28 }
  - { offsetInCU: 0x3B781, offset: 0x3B781, size: 0x8, addend: 0x0, symName: __ZNKSt3__112basic_stringIcNS_11char_traitsIcEENS_9allocatorIcEEE19__get_short_pointerB8ue170006Ev, symObjAddr: 0x84B8, symBinAddr: 0x100009D74, symSize: 0x28 }
  - { offsetInCU: 0x3B7A7, offset: 0x3B7A7, size: 0x8, addend: 0x0, symName: __ZNSt3__114pointer_traitsIPKcE10pointer_toB8ue170006ERS1_, symObjAddr: 0x84E0, symBinAddr: 0x100009D9C, symSize: 0x14 }
  - { offsetInCU: 0x3B7CA, offset: 0x3B7CA, size: 0x8, addend: 0x0, symName: __ZNK7sc_core9sc_object4nameEv, symObjAddr: 0x853C, symBinAddr: 0x100009DF8, symSize: 0x28 }
  - { offsetInCU: 0x3B7F0, offset: 0x3B7F0, size: 0x8, addend: 0x0, symName: __ZNSt3__113basic_ostreamIcNS_11char_traitsIcEEElsB8ue170006EPFRS3_S4_E, symObjAddr: 0x8564, symBinAddr: 0x100009E20, symSize: 0x2C }
  - { offsetInCU: 0x3B824, offset: 0x3B824, size: 0x8, addend: 0x0, symName: __ZNKSt3__112basic_stringIcNS_11char_traitsIcEENS_9allocatorIcEEE5c_strB8ue170006Ev, symObjAddr: 0x85E8, symBinAddr: 0x100009EA4, symSize: 0x24 }
  - { offsetInCU: 0x3B84A, offset: 0x3B84A, size: 0x8, addend: 0x0, symName: __ZN7sc_core28sc_writer_policy_check_write6updateEv, symObjAddr: 0x860C, symBinAddr: 0x100009EC8, symSize: 0x58 }
  - { offsetInCU: 0x3B872, offset: 0x3B872, size: 0x8, addend: 0x0, symName: __ZN7sc_core11sc_signal_tIN5sc_dt7sc_uintILi32EEELNS_16sc_writer_policyE0EE9do_updateEv, symObjAddr: 0x8664, symBinAddr: 0x100009F20, symSize: 0x40 }
  - { offsetInCU: 0x3B89A, offset: 0x3B89A, size: 0x8, addend: 0x0, symName: __ZTv0_n40_N7sc_core18sc_signal_inout_ifIN5sc_dt7sc_uintILi32EEEED1Ev, symObjAddr: 0x86A4, symBinAddr: 0x100009F60, symSize: 0x28 }
  - { offsetInCU: 0x3B8B0, offset: 0x3B8B0, size: 0x8, addend: 0x0, symName: __ZTv0_n40_N7sc_core18sc_signal_inout_ifIN5sc_dt7sc_uintILi32EEEED0Ev, symObjAddr: 0x86CC, symBinAddr: 0x100009F88, symSize: 0x20 }
  - { offsetInCU: 0x3B8C6, offset: 0x3B8C6, size: 0x8, addend: 0x0, symName: __ZTv0_n40_N7sc_core15sc_signal_in_ifIN5sc_dt7sc_uintILi32EEEED1Ev, symObjAddr: 0x86EC, symBinAddr: 0x100009FA8, symSize: 0x28 }
  - { offsetInCU: 0x3B8DC, offset: 0x3B8DC, size: 0x8, addend: 0x0, symName: __ZTv0_n40_N7sc_core15sc_signal_in_ifIN5sc_dt7sc_uintILi32EEEED0Ev, symObjAddr: 0x8714, symBinAddr: 0x100009FD0, symSize: 0x20 }
  - { offsetInCU: 0x3B8F2, offset: 0x3B8F2, size: 0x8, addend: 0x0, symName: __ZTv0_n40_N7sc_core9sc_signalIN5sc_dt7sc_uintILi32EEELNS_16sc_writer_policyE0EED0Ev, symObjAddr: 0x8734, symBinAddr: 0x100009FF0, symSize: 0x20 }
  - { offsetInCU: 0x3B909, offset: 0x3B909, size: 0x8, addend: 0x0, symName: __ZN7sc_core9sc_signalIN5sc_dt7sc_uintILi32EEELNS_16sc_writer_policyE0EED2Ev, symObjAddr: 0x8754, symBinAddr: 0x10000A010, symSize: 0x38 }
  - { offsetInCU: 0x3B940, offset: 0x3B940, size: 0x8, addend: 0x0, symName: __ZTv0_n40_N7sc_core9sc_signalIN5sc_dt7sc_uintILi32EEELNS_16sc_writer_policyE0EED1Ev, symObjAddr: 0x878C, symBinAddr: 0x10000A048, symSize: 0x28 }
  - { offsetInCU: 0x44, offset: 0x3BB9D, size: 0x8, addend: 0x0, symName: __ZN7sc_coreL17api_version_checkE, symObjAddr: 0xBC096, symBinAddr: 0x100014001, symSize: 0x0 }
  - { offsetInCU: 0x1D4F7, offset: 0x59050, size: 0x8, addend: 0x0, symName: __ZN5cache12cache_accessEv, symObjAddr: 0x0, symBinAddr: 0x10000A0AC, symSize: 0x328 }
  - { offsetInCU: 0x1D560, offset: 0x590B9, size: 0x8, addend: 0x0, symName: __ZN7sc_core9sc_module4waitERKNS_7sc_timeE, symObjAddr: 0x328, symBinAddr: 0x10000A3D4, symSize: 0x3C }
  - { offsetInCU: 0x1D594, offset: 0x590ED, size: 0x8, addend: 0x0, symName: __ZNK7sc_core5sc_inIN5sc_dt7sc_uintILi32EEEE4readEv, symObjAddr: 0x364, symBinAddr: 0x10000A410, symSize: 0x30 }
  - { offsetInCU: 0x1D5BA, offset: 0x59113, size: 0x8, addend: 0x0, symName: __ZN5sc_dt12sc_uint_base5rangeEii, symObjAddr: 0x3C8, symBinAddr: 0x10000A440, symSize: 0x60 }
  - { offsetInCU: 0x1D625, offset: 0x5917E, size: 0x8, addend: 0x0, symName: __ZN5sc_dt7sc_uintILi6EEC1ERKNS_16sc_uint_subref_rE, symObjAddr: 0x428, symBinAddr: 0x10000A4A0, symSize: 0x34 }
  - { offsetInCU: 0x1D673, offset: 0x591CC, size: 0x8, addend: 0x0, symName: __ZN5sc_dt7sc_uintILi8EEC1ERKNS_16sc_uint_subref_rE, symObjAddr: 0x45C, symBinAddr: 0x10000A4D4, symSize: 0x34 }
  - { offsetInCU: 0x1D6C1, offset: 0x5921A, size: 0x8, addend: 0x0, symName: __ZN5sc_dt7sc_uintILi18EEC1ERKNS_16sc_uint_subref_rE, symObjAddr: 0x490, symBinAddr: 0x10000A508, symSize: 0x34 }
  - { offsetInCU: 0x1D6F9, offset: 0x59252, size: 0x8, addend: 0x0, symName: __ZNK7sc_core5sc_inIbE4readEv, symObjAddr: 0x4C4, symBinAddr: 0x10000A53C, symSize: 0x30 }
  - { offsetInCU: 0x1D71F, offset: 0x59278, size: 0x8, addend: 0x0, symName: __ZNK5sc_dt12sc_uint_basecvyEv, symObjAddr: 0x524, symBinAddr: 0x10000A56C, symSize: 0x18 }
  - { offsetInCU: 0x1D745, offset: 0x5929E, size: 0x8, addend: 0x0, symName: __ZN5sc_dt7sc_uintILi32EEaSERKNS_12sc_uint_baseE, symObjAddr: 0x608, symBinAddr: 0x10000A584, symSize: 0x34 }
  - { offsetInCU: 0x1D779, offset: 0x592D2, size: 0x8, addend: 0x0, symName: __ZN7sc_core9sc_module4waitEv, symObjAddr: 0x63C, symBinAddr: 0x10000A5B8, symSize: 0x28 }
  - { offsetInCU: 0x1D79F, offset: 0x592F8, size: 0x8, addend: 0x0, symName: __ZN5sc_dt7sc_uintILi18EED1Ev, symObjAddr: 0x664, symBinAddr: 0x10000A5E0, symSize: 0x2C }
  - { offsetInCU: 0x1D7CB, offset: 0x59324, size: 0x8, addend: 0x0, symName: __ZN5sc_dt7sc_uintILi8EED1Ev, symObjAddr: 0x690, symBinAddr: 0x10000A60C, symSize: 0x2C }
  - { offsetInCU: 0x1D7F7, offset: 0x59350, size: 0x8, addend: 0x0, symName: __ZN5sc_dt7sc_uintILi6EED1Ev, symObjAddr: 0x6BC, symBinAddr: 0x10000A638, symSize: 0x2C }
  - { offsetInCU: 0x1D823, offset: 0x5937C, size: 0x8, addend: 0x0, symName: __ZN5cacheC2EN7sc_core14sc_module_nameE, symObjAddr: 0x714, symBinAddr: 0x10000A664, symSize: 0x3EC }
  - { offsetInCU: 0x1D872, offset: 0x593CB, size: 0x8, addend: 0x0, symName: __ZN7sc_core5sc_inIN5sc_dt7sc_uintILi32EEEEC1Ev, symObjAddr: 0xB00, symBinAddr: 0x10000AA50, symSize: 0x2C }
  - { offsetInCU: 0x1D89C, offset: 0x593F5, size: 0x8, addend: 0x0, symName: __ZN7sc_core5sc_inIbEC1Ev, symObjAddr: 0xB2C, symBinAddr: 0x10000AA7C, symSize: 0x2C }
  - { offsetInCU: 0x1D8C6, offset: 0x5941F, size: 0x8, addend: 0x0, symName: __ZN7sc_core17sc_process_handleC1ERKS0_, symObjAddr: 0xC1C, symBinAddr: 0x10000AAA8, symSize: 0x34 }
  - { offsetInCU: 0x1D8FF, offset: 0x59458, size: 0x8, addend: 0x0, symName: __ZNK7sc_core5sc_inIbE3posEv, symObjAddr: 0xC7C, symBinAddr: 0x10000AADC, symSize: 0x44 }
  - { offsetInCU: 0x1D925, offset: 0x5947E, size: 0x8, addend: 0x0, symName: __ZN5cacheC1EN7sc_core14sc_module_nameE, symObjAddr: 0xD18, symBinAddr: 0x10000AB20, symSize: 0x34 }
  - { offsetInCU: 0x1D960, offset: 0x594B9, size: 0x8, addend: 0x0, symName: __ZNK5sc_dt12sc_uint_base11check_rangeEii, symObjAddr: 0xE24, symBinAddr: 0x10000AB54, symSize: 0x88 }
  - { offsetInCU: 0x1D9A4, offset: 0x594FD, size: 0x8, addend: 0x0, symName: __ZN5sc_dt16sc_uint_subref_r10initializeEPKNS_12sc_uint_baseEii, symObjAddr: 0xEAC, symBinAddr: 0x10000ABDC, symSize: 0x38 }
  - { offsetInCU: 0x1D9F7, offset: 0x59550, size: 0x8, addend: 0x0, symName: __ZNK7sc_core9sc_port_bINS_15sc_signal_in_ifIbEEEptEv, symObjAddr: 0xEE4, symBinAddr: 0x10000AC14, symSize: 0x24 }
  - { offsetInCU: 0x1DA1F, offset: 0x59578, size: 0x8, addend: 0x0, symName: __ZN7sc_core9sc_port_bINS_15sc_signal_in_ifIbEEEptEv, symObjAddr: 0xF08, symBinAddr: 0x10000AC38, symSize: 0x5C }
  - { offsetInCU: 0x1DA47, offset: 0x595A0, size: 0x8, addend: 0x0, symName: __ZN5sc_dt7sc_uintILi18EED2Ev, symObjAddr: 0xF64, symBinAddr: 0x10000AC94, symSize: 0x2C }
  - { offsetInCU: 0x1DA73, offset: 0x595CC, size: 0x8, addend: 0x0, symName: __ZN5sc_dt7sc_uintILi8EED2Ev, symObjAddr: 0xFD0, symBinAddr: 0x10000ACC0, symSize: 0x2C }
  - { offsetInCU: 0x1DA9F, offset: 0x595F8, size: 0x8, addend: 0x0, symName: __ZN5sc_dt7sc_uintILi6EED2Ev, symObjAddr: 0xFFC, symBinAddr: 0x10000ACEC, symSize: 0x2C }
  - { offsetInCU: 0x1DACB, offset: 0x59624, size: 0x8, addend: 0x0, symName: __ZN7sc_core5sc_inIbEC2Ev, symObjAddr: 0x1054, symBinAddr: 0x10000AD18, symSize: 0x54 }
  - { offsetInCU: 0x1DAF5, offset: 0x5964E, size: 0x8, addend: 0x0, symName: __ZN7sc_core17sc_process_handleC2ERKS0_, symObjAddr: 0x10A8, symBinAddr: 0x10000AD6C, symSize: 0x64 }
  - { offsetInCU: 0x1DB4A, offset: 0x596A3, size: 0x8, addend: 0x0, symName: __ZN7sc_core15sc_event_finder13cached_createINS_15sc_signal_in_ifIbEEEERS0_RPS0_RKNS_12sc_port_baseEMT_KFRKNS_8sc_eventEvE, symObjAddr: 0x1228, symBinAddr: 0x10000ADD0, symSize: 0x100 }
  - { offsetInCU: 0x1DBAD, offset: 0x59706, size: 0x8, addend: 0x0, symName: __ZN7sc_core17sc_event_finder_tINS_15sc_signal_in_ifIbEEEC1ERKNS_12sc_port_baseEMS2_KFRKNS_8sc_eventEvE, symObjAddr: 0x1328, symBinAddr: 0x10000AED0, symSize: 0x64 }
  - { offsetInCU: 0x1DBF3, offset: 0x5974C, size: 0x8, addend: 0x0, symName: __ZNK7sc_core15sc_event_finder4portEv, symObjAddr: 0x138C, symBinAddr: 0x10000AF34, symSize: 0x18 }
  - { offsetInCU: 0x1DC19, offset: 0x59772, size: 0x8, addend: 0x0, symName: __ZN7sc_core17sc_event_finder_tINS_15sc_signal_in_ifIbEEEC2ERKNS_12sc_port_baseEMS2_KFRKNS_8sc_eventEvE, symObjAddr: 0x13A4, symBinAddr: 0x10000AF4C, symSize: 0x74 }
  - { offsetInCU: 0x1DC5F, offset: 0x597B8, size: 0x8, addend: 0x0, symName: __ZN7sc_core17sc_event_finder_tINS_15sc_signal_in_ifIbEEED1Ev, symObjAddr: 0x1418, symBinAddr: 0x10000AFC0, symSize: 0x2C }
  - { offsetInCU: 0x1DC89, offset: 0x597E2, size: 0x8, addend: 0x0, symName: __ZN7sc_core17sc_event_finder_tINS_15sc_signal_in_ifIbEEED0Ev, symObjAddr: 0x1444, symBinAddr: 0x10000AFEC, symSize: 0x30 }
  - { offsetInCU: 0x1DCB3, offset: 0x5980C, size: 0x8, addend: 0x0, symName: __ZNK7sc_core17sc_event_finder_tINS_15sc_signal_in_ifIbEEE10find_eventEPNS_12sc_interfaceE, symObjAddr: 0x1474, symBinAddr: 0x10000B01C, symSize: 0x1A0 }
  - { offsetInCU: 0x1DCF6, offset: 0x5984F, size: 0x8, addend: 0x0, symName: __ZN7sc_core17sc_event_finder_tINS_15sc_signal_in_ifIbEEED2Ev, symObjAddr: 0x1614, symBinAddr: 0x10000B1BC, symSize: 0x2C }
  - { offsetInCU: 0x1DD20, offset: 0x59879, size: 0x8, addend: 0x0, symName: __ZNK7sc_core9sc_port_bINS_15sc_signal_in_ifIN5sc_dt7sc_uintILi32EEEEEEptEv, symObjAddr: 0x1724, symBinAddr: 0x10000B1E8, symSize: 0x24 }
  - { offsetInCU: 0x1DD48, offset: 0x598A1, size: 0x8, addend: 0x0, symName: __ZN7sc_core9sc_port_bINS_15sc_signal_in_ifIN5sc_dt7sc_uintILi32EEEEEEptEv, symObjAddr: 0x1748, symBinAddr: 0x10000B20C, symSize: 0x5C }
  - { offsetInCU: 0x1DD70, offset: 0x598C9, size: 0x8, addend: 0x0, symName: __ZN5sc_dt7sc_uintILi6EEC2ERKNS_16sc_uint_subref_rE, symObjAddr: 0x1938, symBinAddr: 0x10000B268, symSize: 0x80 }
  - { offsetInCU: 0x1DDA8, offset: 0x59901, size: 0x8, addend: 0x0, symName: __ZN5sc_dt12sc_uint_baseaSERKNS_16sc_uint_subref_rE, symObjAddr: 0x1A4C, symBinAddr: 0x10000B2E8, symSize: 0x44 }
  - { offsetInCU: 0x1DDDD, offset: 0x59936, size: 0x8, addend: 0x0, symName: __ZN5sc_dt7sc_uintILi6EED0Ev, symObjAddr: 0x1A90, symBinAddr: 0x10000B32C, symSize: 0x30 }
  - { offsetInCU: 0x1DE09, offset: 0x59962, size: 0x8, addend: 0x0, symName: __ZNK5sc_dt16sc_uint_subref_rcvyEv, symObjAddr: 0x1B40, symBinAddr: 0x10000B35C, symSize: 0x54 }
  - { offsetInCU: 0x1DE4F, offset: 0x599A8, size: 0x8, addend: 0x0, symName: __ZN5sc_dt12sc_uint_base11extend_signEv, symObjAddr: 0x1B94, symBinAddr: 0x10000B3B0, symSize: 0x30 }
  - { offsetInCU: 0x1DE75, offset: 0x599CE, size: 0x8, addend: 0x0, symName: __ZN5sc_dt7sc_uintILi8EEC2ERKNS_16sc_uint_subref_rE, symObjAddr: 0x1BC4, symBinAddr: 0x10000B3E0, symSize: 0x80 }
  - { offsetInCU: 0x1DEAD, offset: 0x59A06, size: 0x8, addend: 0x0, symName: __ZN5sc_dt7sc_uintILi8EED0Ev, symObjAddr: 0x1C44, symBinAddr: 0x10000B460, symSize: 0x30 }
  - { offsetInCU: 0x1DED9, offset: 0x59A32, size: 0x8, addend: 0x0, symName: __ZN5sc_dt7sc_uintILi18EEC2ERKNS_16sc_uint_subref_rE, symObjAddr: 0x1C74, symBinAddr: 0x10000B490, symSize: 0x80 }
  - { offsetInCU: 0x1DF11, offset: 0x59A6A, size: 0x8, addend: 0x0, symName: __ZN5sc_dt7sc_uintILi18EED0Ev, symObjAddr: 0x1CF4, symBinAddr: 0x10000B510, symSize: 0x30 }
  - { offsetInCU: 0x1DF5E, offset: 0x59AB7, size: 0x8, addend: 0x0, symName: __ZN5sc_dt12sc_uint_baseaSERKS0_, symObjAddr: 0x2804, symBinAddr: 0x10000B540, symSize: 0x3C }
  - { offsetInCU: 0x1DF93, offset: 0x59AEC, size: 0x8, addend: 0x0, symName: __ZN7sc_core5sc_inIN5sc_dt7sc_uintILi32EEEEC2Ev, symObjAddr: 0x2840, symBinAddr: 0x10000B57C, symSize: 0x4C }
  - { offsetInCU: 0x1DFBD, offset: 0x59B16, size: 0x8, addend: 0x0, symName: __ZN7sc_core7sc_portINS_15sc_signal_in_ifIN5sc_dt7sc_uintILi32EEEEELi1ELNS_14sc_port_policyE0EEC2Ev, symObjAddr: 0x288C, symBinAddr: 0x10000B5C8, symSize: 0x4C }
  - { offsetInCU: 0x1DFE7, offset: 0x59B40, size: 0x8, addend: 0x0, symName: __ZN7sc_core9sc_port_bINS_15sc_signal_in_ifIN5sc_dt7sc_uintILi32EEEEEEC2EiNS_14sc_port_policyE, symObjAddr: 0x312C, symBinAddr: 0x10000B614, symSize: 0x64 }
  - { offsetInCU: 0x1E02F, offset: 0x59B88, size: 0x8, addend: 0x0, symName: __ZNK7sc_core7sc_portINS_15sc_signal_in_ifIN5sc_dt7sc_uintILi32EEEEELi1ELNS_14sc_port_policyE0EE4kindEv, symObjAddr: 0x3190, symBinAddr: 0x10000B678, symSize: 0x18 }
  - { offsetInCU: 0x1E055, offset: 0x59BAE, size: 0x8, addend: 0x0, symName: __ZN7sc_core7sc_portINS_15sc_signal_in_ifIN5sc_dt7sc_uintILi32EEEEELi1ELNS_14sc_port_policyE0EED1Ev, symObjAddr: 0x31A8, symBinAddr: 0x10000B690, symSize: 0x2C }
  - { offsetInCU: 0x1E07F, offset: 0x59BD8, size: 0x8, addend: 0x0, symName: __ZN7sc_core7sc_portINS_15sc_signal_in_ifIN5sc_dt7sc_uintILi32EEEEELi1ELNS_14sc_port_policyE0EED0Ev, symObjAddr: 0x31D4, symBinAddr: 0x10000B6BC, symSize: 0x30 }
  - { offsetInCU: 0x1E0A9, offset: 0x59C02, size: 0x8, addend: 0x0, symName: __ZNSt3__16vectorIPN7sc_core15sc_signal_in_ifIN5sc_dt7sc_uintILi32EEEEENS_9allocatorIS7_EEEC1B8ue170006Ev, symObjAddr: 0x33D4, symBinAddr: 0x10000B6EC, symSize: 0x2C }
  - { offsetInCU: 0x1E0D3, offset: 0x59C2C, size: 0x8, addend: 0x0, symName: __ZNSt3__16vectorIPN7sc_core15sc_signal_in_ifIN5sc_dt7sc_uintILi32EEEEENS_9allocatorIS7_EEEC2B8ue170006Ev, symObjAddr: 0x3474, symBinAddr: 0x10000B718, symSize: 0x4C }
  - { offsetInCU: 0x1E103, offset: 0x59C5C, size: 0x8, addend: 0x0, symName: __ZNSt3__117__compressed_pairIPPN7sc_core15sc_signal_in_ifIN5sc_dt7sc_uintILi32EEEEENS_9allocatorIS7_EEEC1B8ue170006IDnNS_18__default_init_tagEEEOT_OT0_, symObjAddr: 0x34C0, symBinAddr: 0x10000B764, symSize: 0x3C }
  - { offsetInCU: 0x1E15B, offset: 0x59CB4, size: 0x8, addend: 0x0, symName: __ZNSt3__117__compressed_pairIPPN7sc_core15sc_signal_in_ifIN5sc_dt7sc_uintILi32EEEEENS_9allocatorIS7_EEEC2B8ue170006IDnNS_18__default_init_tagEEEOT_OT0_, symObjAddr: 0x34FC, symBinAddr: 0x10000B7A0, symSize: 0x40 }
  - { offsetInCU: 0x1E1B3, offset: 0x59D0C, size: 0x8, addend: 0x0, symName: __ZNSt3__122__compressed_pair_elemINS_9allocatorIPN7sc_core15sc_signal_in_ifIN5sc_dt7sc_uintILi32EEEEEEELi1ELb1EEC2B8ue170006ENS_18__default_init_tagE, symObjAddr: 0x3558, symBinAddr: 0x10000B7E0, symSize: 0x2C }
  - { offsetInCU: 0x1E1E8, offset: 0x59D41, size: 0x8, addend: 0x0, symName: __ZNSt3__19allocatorIPN7sc_core15sc_signal_in_ifIN5sc_dt7sc_uintILi32EEEEEEC2B8ue170006Ev, symObjAddr: 0x3584, symBinAddr: 0x10000B80C, symSize: 0x2C }
  - { offsetInCU: 0x1E212, offset: 0x59D6B, size: 0x8, addend: 0x0, symName: __ZNSt3__116__non_trivial_ifILb1ENS_9allocatorIPN7sc_core15sc_signal_in_ifIN5sc_dt7sc_uintILi32EEEEEEEEC2B8ue170006Ev, symObjAddr: 0x35B0, symBinAddr: 0x10000B838, symSize: 0x14 }
  - { offsetInCU: 0x44, offset: 0x59E6B, size: 0x8, addend: 0x0, symName: __ZN7sc_coreL17api_version_checkE, symObjAddr: 0xB94F1, symBinAddr: 0x100014002, symSize: 0x0 }
  - { offsetInCU: 0x1874B, offset: 0x72572, size: 0x8, addend: 0x0, symName: __ZNSt3__112__to_addressB8ue170006IPN7sc_core18sc_signal_inout_ifIbEEEEPT_S6_, symObjAddr: 0x4EC8, symBinAddr: 0x10000CD70, symSize: 0x14 }
  - { offsetInCU: 0x18780, offset: 0x725A7, size: 0x8, addend: 0x0, symName: __ZNSt3__119__allocate_at_leastB8ue170006INS_9allocatorIPN7sc_core18sc_signal_inout_ifIbEEEEEENS_19__allocation_resultINS_16allocator_traitsIT_E7pointerEEERS9_m, symObjAddr: 0x54C4, symBinAddr: 0x10000D36C, symSize: 0x40 }
  - { offsetInCU: 0x187C3, offset: 0x725EA, size: 0x8, addend: 0x0, symName: __ZNSt3__142__uninitialized_allocator_move_if_noexceptB8ue170006INS_9allocatorIPN7sc_core18sc_signal_inout_ifIbEEEENS_16reverse_iteratorIPS5_EES9_S5_vEET1_RT_T0_SD_SA_, symObjAddr: 0x574C, symBinAddr: 0x10000D5F4, symSize: 0x78 }
  - { offsetInCU: 0x18841, offset: 0x72668, size: 0x8, addend: 0x0, symName: __ZNSt3__14swapB8ue170006IPPN7sc_core18sc_signal_inout_ifIbEEEENS_9enable_ifIXaasr21is_move_constructibleIT_EE5valuesr18is_move_assignableIS7_EE5valueEvE4typeERS7_SA_, symObjAddr: 0x5810, symBinAddr: 0x10000D6B8, symSize: 0x3C }
  - { offsetInCU: 0x18892, offset: 0x726B9, size: 0x8, addend: 0x0, symName: __ZNSt3__14moveB8ue170006INS_16reverse_iteratorIPPN7sc_core18sc_signal_inout_ifIbEEEES7_EET0_T_S9_S8_, symObjAddr: 0x5940, symBinAddr: 0x10000D7E8, symSize: 0x78 }
  - { offsetInCU: 0x188EC, offset: 0x72713, size: 0x8, addend: 0x0, symName: __ZNSt3__16__moveB8ue170006INS_17_ClassicAlgPolicyENS_16reverse_iteratorIPPN7sc_core18sc_signal_inout_ifIbEEEES8_S8_EENS_4pairIT0_T2_EESA_T1_SB_, symObjAddr: 0x59B8, symBinAddr: 0x10000D860, symSize: 0x64 }
  - { offsetInCU: 0x18958, offset: 0x7277F, size: 0x8, addend: 0x0, symName: __ZNSt3__123__dispatch_copy_or_moveB8ue170006INS_17_ClassicAlgPolicyENS_11__move_loopIS1_EENS_14__move_trivialENS_16reverse_iteratorIPPN7sc_core18sc_signal_inout_ifIbEEEESB_SB_EENS_4pairIT2_T4_EESD_T3_SE_, symObjAddr: 0x5A1C, symBinAddr: 0x10000D8C4, symSize: 0x64 }
  - { offsetInCU: 0x189D6, offset: 0x727FD, size: 0x8, addend: 0x0, symName: __ZNSt3__121__unwrap_and_dispatchB8ue170006INS_10__overloadINS_11__move_loopINS_17_ClassicAlgPolicyEEENS_14__move_trivialEEENS_16reverse_iteratorIPPN7sc_core18sc_signal_inout_ifIbEEEESD_SD_Li0EEENS_4pairIT0_T2_EESF_T1_SG_, symObjAddr: 0x5A80, symBinAddr: 0x10000D928, symSize: 0x12C }
  - { offsetInCU: 0x18A66, offset: 0x7288D, size: 0x8, addend: 0x0, symName: __ZNSt3__114__unwrap_rangeB8ue170006INS_16reverse_iteratorIPPN7sc_core18sc_signal_inout_ifIbEEEES7_EENS_4pairIT0_S9_EET_SB_, symObjAddr: 0x5BAC, symBinAddr: 0x10000DA54, symSize: 0x84 }
  - { offsetInCU: 0x18B86, offset: 0x729AD, size: 0x8, addend: 0x0, symName: __ZNSt3__113__unwrap_iterB8ue170006INS_16reverse_iteratorIPPN7sc_core18sc_signal_inout_ifIbEEEENS_18__unwrap_iter_implIS7_Lb0EEELi0EEEDTclsrT0_8__unwrapclsr3stdE7declvalIT_EEEESB_, symObjAddr: 0x5CD0, symBinAddr: 0x10000DB78, symSize: 0x44 }
  - { offsetInCU: 0x18BCA, offset: 0x729F1, size: 0x8, addend: 0x0, symName: __ZNSt3__19make_pairB8ue170006INS_16reverse_iteratorIPPN7sc_core18sc_signal_inout_ifIbEEEES7_EENS_4pairINS_18__unwrap_ref_decayIT_E4typeENS9_IT0_E4typeEEEOSA_OSD_, symObjAddr: 0x5D14, symBinAddr: 0x10000DBBC, symSize: 0x38 }
  - { offsetInCU: 0x18C19, offset: 0x72A40, size: 0x8, addend: 0x0, symName: __ZNSt3__114__rewrap_rangeB8ue170006INS_16reverse_iteratorIPPN7sc_core18sc_signal_inout_ifIbEEEES7_EET_S8_T0_, symObjAddr: 0x5D4C, symBinAddr: 0x10000DBF4, symSize: 0x5C }
  - { offsetInCU: 0x18C65, offset: 0x72A8C, size: 0x8, addend: 0x0, symName: __ZNSt3__113__rewrap_iterB8ue170006INS_16reverse_iteratorIPPN7sc_core18sc_signal_inout_ifIbEEEES7_NS_18__unwrap_iter_implIS7_Lb0EEEEET_SA_T0_, symObjAddr: 0x5DA8, symBinAddr: 0x10000DC50, symSize: 0x74 }
  - { offsetInCU: 0x18CBA, offset: 0x72AE1, size: 0x8, addend: 0x0, symName: __ZNSt3__1neB8ue170006IPPN7sc_core18sc_signal_inout_ifIbEES5_EEbRKNS_16reverse_iteratorIT_EERKNS6_IT0_EE, symObjAddr: 0x5E1C, symBinAddr: 0x10000DCC4, symSize: 0x48 }
  - { offsetInCU: 0x1A489, offset: 0x742B0, size: 0x8, addend: 0x0, symName: __ZNSt3__16vectorIPN7sc_core18sc_signal_inout_ifIbEENS_9allocatorIS4_EEE26__swap_out_circular_bufferERNS_14__split_bufferIS4_RS6_EE, symObjAddr: 0x50C4, symBinAddr: 0x10000CF6C, symSize: 0x110 }
  - { offsetInCU: 0x1C85C, offset: 0x76683, size: 0x8, addend: 0x0, symName: __ZN9testbench7processEv, symObjAddr: 0x0, symBinAddr: 0x10000B888, symSize: 0x164 }
  - { offsetInCU: 0x1C898, offset: 0x766BF, size: 0x8, addend: 0x0, symName: __ZN5sc_dt7sc_uintILi32EEC1Ej, symObjAddr: 0x1A4, symBinAddr: 0x10000B9EC, symSize: 0x34 }
  - { offsetInCU: 0x1C8D0, offset: 0x766F7, size: 0x8, addend: 0x0, symName: __ZN7sc_core8sc_inoutIbE5writeERKb, symObjAddr: 0x204, symBinAddr: 0x10000BA20, symSize: 0x40 }
  - { offsetInCU: 0x1C905, offset: 0x7672C, size: 0x8, addend: 0x0, symName: __ZN9testbenchC2EN7sc_core14sc_module_nameE, symObjAddr: 0x26C, symBinAddr: 0x10000BA60, symSize: 0x3A0 }
  - { offsetInCU: 0x1C955, offset: 0x7677C, size: 0x8, addend: 0x0, symName: __ZN7sc_core6sc_outIN5sc_dt7sc_uintILi32EEEEC1Ev, symObjAddr: 0x638, symBinAddr: 0x10000BE00, symSize: 0x2C }
  - { offsetInCU: 0x1C97F, offset: 0x767A6, size: 0x8, addend: 0x0, symName: __ZN7sc_core6sc_outIbEC1Ev, symObjAddr: 0x664, symBinAddr: 0x10000BE2C, symSize: 0x2C }
  - { offsetInCU: 0x1C9A9, offset: 0x767D0, size: 0x8, addend: 0x0, symName: __ZN9testbenchC1EN7sc_core14sc_module_nameE, symObjAddr: 0x850, symBinAddr: 0x10000BE58, symSize: 0x34 }
  - { offsetInCU: 0x1C9E4, offset: 0x7680B, size: 0x8, addend: 0x0, symName: __ZN7sc_core9sc_port_bINS_18sc_signal_inout_ifIbEEEptEv, symObjAddr: 0x9B0, symBinAddr: 0x10000BE8C, symSize: 0x5C }
  - { offsetInCU: 0x1CA0C, offset: 0x76833, size: 0x8, addend: 0x0, symName: __ZN5sc_dt7sc_uintILi32EEC2Ej, symObjAddr: 0x1150, symBinAddr: 0x10000BEE8, symSize: 0x80 }
  - { offsetInCU: 0x1CA44, offset: 0x7686B, size: 0x8, addend: 0x0, symName: __ZN5sc_dt12sc_uint_baseaSEj, symObjAddr: 0x1264, symBinAddr: 0x10000BF68, symSize: 0x38 }
  - { offsetInCU: 0x1CA79, offset: 0x768A0, size: 0x8, addend: 0x0, symName: __ZN7sc_core6sc_outIN5sc_dt7sc_uintILi32EEEEC2Ev, symObjAddr: 0x13FC, symBinAddr: 0x10000BFA0, symSize: 0x44 }
  - { offsetInCU: 0x1CAA3, offset: 0x768CA, size: 0x8, addend: 0x0, symName: __ZN7sc_core8sc_inoutIN5sc_dt7sc_uintILi32EEEEC2Ev, symObjAddr: 0x1440, symBinAddr: 0x10000BFE4, symSize: 0x50 }
  - { offsetInCU: 0x1CACD, offset: 0x768F4, size: 0x8, addend: 0x0, symName: __ZNK7sc_core6sc_outIN5sc_dt7sc_uintILi32EEEE4kindEv, symObjAddr: 0x1490, symBinAddr: 0x10000C034, symSize: 0x18 }
  - { offsetInCU: 0x1CAF3, offset: 0x7691A, size: 0x8, addend: 0x0, symName: __ZN7sc_core6sc_outIN5sc_dt7sc_uintILi32EEEED0Ev, symObjAddr: 0x14C0, symBinAddr: 0x10000C04C, symSize: 0x30 }
  - { offsetInCU: 0x1CB1D, offset: 0x76944, size: 0x8, addend: 0x0, symName: __ZN7sc_core7sc_portINS_18sc_signal_inout_ifIN5sc_dt7sc_uintILi32EEEEELi1ELNS_14sc_port_policyE0EEC2Ev, symObjAddr: 0x1CD0, symBinAddr: 0x10000C07C, symSize: 0x4C }
  - { offsetInCU: 0x1CB47, offset: 0x7696E, size: 0x8, addend: 0x0, symName: __ZN7sc_core9sc_port_bINS_18sc_signal_inout_ifIN5sc_dt7sc_uintILi32EEEEEEC2EiNS_14sc_port_policyE, symObjAddr: 0x1D90, symBinAddr: 0x10000C0C8, symSize: 0x64 }
  - { offsetInCU: 0x1CB8F, offset: 0x769B6, size: 0x8, addend: 0x0, symName: __ZNK7sc_core7sc_portINS_18sc_signal_inout_ifIN5sc_dt7sc_uintILi32EEEEELi1ELNS_14sc_port_policyE0EE4kindEv, symObjAddr: 0x1DF4, symBinAddr: 0x10000C12C, symSize: 0x18 }
  - { offsetInCU: 0x1CBB5, offset: 0x769DC, size: 0x8, addend: 0x0, symName: __ZN7sc_core7sc_portINS_18sc_signal_inout_ifIN5sc_dt7sc_uintILi32EEEEELi1ELNS_14sc_port_policyE0EED1Ev, symObjAddr: 0x1E0C, symBinAddr: 0x10000C144, symSize: 0x2C }
  - { offsetInCU: 0x1CBDF, offset: 0x76A06, size: 0x8, addend: 0x0, symName: __ZN7sc_core7sc_portINS_18sc_signal_inout_ifIN5sc_dt7sc_uintILi32EEEEELi1ELNS_14sc_port_policyE0EED0Ev, symObjAddr: 0x1E38, symBinAddr: 0x10000C170, symSize: 0x30 }
  - { offsetInCU: 0x1CC09, offset: 0x76A30, size: 0x8, addend: 0x0, symName: __ZNSt3__16vectorIPN7sc_core18sc_signal_inout_ifIN5sc_dt7sc_uintILi32EEEEENS_9allocatorIS7_EEEC1B8ue170006Ev, symObjAddr: 0x1E68, symBinAddr: 0x10000C1A0, symSize: 0x2C }
  - { offsetInCU: 0x1CC33, offset: 0x76A5A, size: 0x8, addend: 0x0, symName: __ZNSt3__16vectorIPN7sc_core18sc_signal_inout_ifIN5sc_dt7sc_uintILi32EEEEENS_9allocatorIS7_EEEC2B8ue170006Ev, symObjAddr: 0x1F08, symBinAddr: 0x10000C1CC, symSize: 0x4C }
  - { offsetInCU: 0x1CC69, offset: 0x76A90, size: 0x8, addend: 0x0, symName: __ZNSt3__117__compressed_pairIPPN7sc_core18sc_signal_inout_ifIN5sc_dt7sc_uintILi32EEEEENS_9allocatorIS7_EEEC1B8ue170006IDnNS_18__default_init_tagEEEOT_OT0_, symObjAddr: 0x1F54, symBinAddr: 0x10000C218, symSize: 0x3C }
  - { offsetInCU: 0x1CCC1, offset: 0x76AE8, size: 0x8, addend: 0x0, symName: __ZNSt3__117__compressed_pairIPPN7sc_core18sc_signal_inout_ifIN5sc_dt7sc_uintILi32EEEEENS_9allocatorIS7_EEEC2B8ue170006IDnNS_18__default_init_tagEEEOT_OT0_, symObjAddr: 0x1F90, symBinAddr: 0x10000C254, symSize: 0x40 }
  - { offsetInCU: 0x1CD19, offset: 0x76B40, size: 0x8, addend: 0x0, symName: __ZNSt3__122__compressed_pair_elemINS_9allocatorIPN7sc_core18sc_signal_inout_ifIN5sc_dt7sc_uintILi32EEEEEEELi1ELb1EEC2B8ue170006ENS_18__default_init_tagE, symObjAddr: 0x1FEC, symBinAddr: 0x10000C294, symSize: 0x2C }
  - { offsetInCU: 0x1CD4E, offset: 0x76B75, size: 0x8, addend: 0x0, symName: __ZNSt3__19allocatorIPN7sc_core18sc_signal_inout_ifIN5sc_dt7sc_uintILi32EEEEEEC2B8ue170006Ev, symObjAddr: 0x2018, symBinAddr: 0x10000C2C0, symSize: 0x2C }
  - { offsetInCU: 0x1CD78, offset: 0x76B9F, size: 0x8, addend: 0x0, symName: __ZNSt3__116__non_trivial_ifILb1ENS_9allocatorIPN7sc_core18sc_signal_inout_ifIN5sc_dt7sc_uintILi32EEEEEEEEC2B8ue170006Ev, symObjAddr: 0x2044, symBinAddr: 0x10000C2EC, symSize: 0x14 }
  - { offsetInCU: 0x1CDC7, offset: 0x76BEE, size: 0x8, addend: 0x0, symName: __ZN7sc_core6sc_outIbEC2Ev, symObjAddr: 0x4458, symBinAddr: 0x10000C300, symSize: 0x44 }
  - { offsetInCU: 0x1CDF1, offset: 0x76C18, size: 0x8, addend: 0x0, symName: __ZN7sc_core8sc_inoutIbEC2Ev, symObjAddr: 0x449C, symBinAddr: 0x10000C344, symSize: 0x58 }
  - { offsetInCU: 0x1CE1B, offset: 0x76C42, size: 0x8, addend: 0x0, symName: __ZNK7sc_core6sc_outIbE4kindEv, symObjAddr: 0x44F4, symBinAddr: 0x10000C39C, symSize: 0x18 }
  - { offsetInCU: 0x1CE41, offset: 0x76C68, size: 0x8, addend: 0x0, symName: __ZN7sc_core6sc_outIbED0Ev, symObjAddr: 0x450C, symBinAddr: 0x10000C3B4, symSize: 0x30 }
  - { offsetInCU: 0x1CE6B, offset: 0x76C92, size: 0x8, addend: 0x0, symName: __ZN7sc_core9sc_port_bINS_18sc_signal_inout_ifIbEEE13get_interfaceEv, symObjAddr: 0x453C, symBinAddr: 0x10000C3E4, symSize: 0x50 }
  - { offsetInCU: 0x1CE91, offset: 0x76CB8, size: 0x8, addend: 0x0, symName: __ZNK7sc_core9sc_port_bINS_18sc_signal_inout_ifIbEEE13get_interfaceEv, symObjAddr: 0x458C, symBinAddr: 0x10000C434, symSize: 0x50 }
  - { offsetInCU: 0x1CEB7, offset: 0x76CDE, size: 0x8, addend: 0x0, symName: __ZNK7sc_core9sc_port_bINS_18sc_signal_inout_ifIbEEE18get_interface_typeEv, symObjAddr: 0x45DC, symBinAddr: 0x10000C484, symSize: 0x30 }
  - { offsetInCU: 0x1CEDF, offset: 0x76D06, size: 0x8, addend: 0x0, symName: __ZN7sc_core9sc_port_bINS_18sc_signal_inout_ifIbEEE5vbindERNS_12sc_interfaceE, symObjAddr: 0x460C, symBinAddr: 0x10000C4B4, symSize: 0xBC }
  - { offsetInCU: 0x1CF25, offset: 0x76D4C, size: 0x8, addend: 0x0, symName: __ZN7sc_core9sc_port_bINS_18sc_signal_inout_ifIbEEE5vbindERNS_12sc_port_baseE, symObjAddr: 0x46C8, symBinAddr: 0x10000C570, symSize: 0xB0 }
  - { offsetInCU: 0x1CF6B, offset: 0x76D92, size: 0x8, addend: 0x0, symName: __ZN7sc_core9sc_port_bINS_18sc_signal_inout_ifIbEEE13add_interfaceEPNS_12sc_interfaceE, symObjAddr: 0x4778, symBinAddr: 0x10000C620, symSize: 0x160 }
  - { offsetInCU: 0x1CFDE, offset: 0x76E05, size: 0x8, addend: 0x0, symName: __ZNK7sc_core9sc_port_bINS_18sc_signal_inout_ifIbEEE15interface_countEv, symObjAddr: 0x48D8, symBinAddr: 0x10000C780, symSize: 0x24 }
  - { offsetInCU: 0x1D006, offset: 0x76E2D, size: 0x8, addend: 0x0, symName: __ZNK7sc_core9sc_port_bINS_18sc_signal_inout_ifIbEEE14make_sensitiveEPNS_17sc_thread_processEPNS_15sc_event_finderE, symObjAddr: 0x48FC, symBinAddr: 0x10000C7A4, symSize: 0x114 }
  - { offsetInCU: 0x1D0A6, offset: 0x76ECD, size: 0x8, addend: 0x0, symName: __ZNK7sc_core9sc_port_bINS_18sc_signal_inout_ifIbEEE14make_sensitiveEPNS_17sc_method_processEPNS_15sc_event_finderE, symObjAddr: 0x4A10, symBinAddr: 0x10000C8B8, symSize: 0x114 }
  - { offsetInCU: 0x1D146, offset: 0x76F6D, size: 0x8, addend: 0x0, symName: __ZN7sc_core9sc_port_bINS_18sc_signal_inout_ifIbEEE4bindERS2_, symObjAddr: 0x4B24, symBinAddr: 0x10000C9CC, symSize: 0x38 }
  - { offsetInCU: 0x1D17B, offset: 0x76FA2, size: 0x8, addend: 0x0, symName: __ZN7sc_core9sc_port_bINS_18sc_signal_inout_ifIbEEE4bindERS3_, symObjAddr: 0x4B5C, symBinAddr: 0x10000CA04, symSize: 0x2C }
  - { offsetInCU: 0x1D1B0, offset: 0x76FD7, size: 0x8, addend: 0x0, symName: __ZNK7sc_core9sc_port_bINS_18sc_signal_inout_ifIbEEE4sizeEv, symObjAddr: 0x4B88, symBinAddr: 0x10000CA30, symSize: 0x28 }
  - { offsetInCU: 0x1D1D6, offset: 0x76FFD, size: 0x8, addend: 0x0, symName: __ZNSt3__16vectorIPN7sc_core18sc_signal_inout_ifIbEENS_9allocatorIS4_EEEixB8ue170006Em, symObjAddr: 0x4BB0, symBinAddr: 0x10000CA58, symSize: 0x24 }
  - { offsetInCU: 0x1D20D, offset: 0x77034, size: 0x8, addend: 0x0, symName: __ZNSt3__16vectorIPN7sc_core18sc_signal_inout_ifIbEENS_9allocatorIS4_EEE9push_backB8ue170006ERKS4_, symObjAddr: 0x4BD4, symBinAddr: 0x10000CA7C, symSize: 0x6C }
  - { offsetInCU: 0x1D244, offset: 0x7706B, size: 0x8, addend: 0x0, symName: __ZNKSt3__16vectorIPN7sc_core18sc_signal_inout_ifIbEENS_9allocatorIS4_EEE4sizeB8ue170006Ev, symObjAddr: 0x4C40, symBinAddr: 0x10000CAE8, symSize: 0x28 }
  - { offsetInCU: 0x1D26A, offset: 0x77091, size: 0x8, addend: 0x0, symName: __ZNSt3__16vectorIPN7sc_core18sc_signal_inout_ifIbEENS_9allocatorIS4_EEE9__end_capB8ue170006Ev, symObjAddr: 0x4C68, symBinAddr: 0x10000CB10, symSize: 0x28 }
  - { offsetInCU: 0x1D290, offset: 0x770B7, size: 0x8, addend: 0x0, symName: __ZNSt3__16vectorIPN7sc_core18sc_signal_inout_ifIbEENS_9allocatorIS4_EEE22__construct_one_at_endB8ue170006IJRKS4_EEEvDpOT_, symObjAddr: 0x4C90, symBinAddr: 0x10000CB38, symSize: 0x90 }
  - { offsetInCU: 0x1D2DF, offset: 0x77106, size: 0x8, addend: 0x0, symName: __ZNSt3__16vectorIPN7sc_core18sc_signal_inout_ifIbEENS_9allocatorIS4_EEE21__push_back_slow_pathIRKS4_EEvOT_, symObjAddr: 0x4D20, symBinAddr: 0x10000CBC8, symSize: 0xD8 }
  - { offsetInCU: 0x1D33D, offset: 0x77164, size: 0x8, addend: 0x0, symName: __ZNSt3__117__compressed_pairIPPN7sc_core18sc_signal_inout_ifIbEENS_9allocatorIS4_EEE5firstB8ue170006Ev, symObjAddr: 0x4DF8, symBinAddr: 0x10000CCA0, symSize: 0x24 }
  - { offsetInCU: 0x1D363, offset: 0x7718A, size: 0x8, addend: 0x0, symName: __ZNSt3__122__compressed_pair_elemIPPN7sc_core18sc_signal_inout_ifIbEELi0ELb0EE5__getB8ue170006Ev, symObjAddr: 0x4E1C, symBinAddr: 0x10000CCC4, symSize: 0x14 }
  - { offsetInCU: 0x1D3A4, offset: 0x771CB, size: 0x8, addend: 0x0, symName: __ZNSt3__16vectorIPN7sc_core18sc_signal_inout_ifIbEENS_9allocatorIS4_EEE21_ConstructTransactionC1B8ue170006ERS7_m, symObjAddr: 0x4E30, symBinAddr: 0x10000CCD8, symSize: 0x3C }
  - { offsetInCU: 0x1D3EC, offset: 0x77213, size: 0x8, addend: 0x0, symName: __ZNSt3__116allocator_traitsINS_9allocatorIPN7sc_core18sc_signal_inout_ifIbEEEEE9constructB8ue170006IS5_JRKS5_EvEEvRS6_PT_DpOT0_, symObjAddr: 0x4E6C, symBinAddr: 0x10000CD14, symSize: 0x34 }
  - { offsetInCU: 0x1D443, offset: 0x7726A, size: 0x8, addend: 0x0, symName: __ZNSt3__16vectorIPN7sc_core18sc_signal_inout_ifIbEENS_9allocatorIS4_EEE7__allocB8ue170006Ev, symObjAddr: 0x4EA0, symBinAddr: 0x10000CD48, symSize: 0x28 }
  - { offsetInCU: 0x1D469, offset: 0x77290, size: 0x8, addend: 0x0, symName: __ZNSt3__16vectorIPN7sc_core18sc_signal_inout_ifIbEENS_9allocatorIS4_EEE21_ConstructTransactionD1B8ue170006Ev, symObjAddr: 0x4EDC, symBinAddr: 0x10000CD84, symSize: 0x2C }
  - { offsetInCU: 0x1D493, offset: 0x772BA, size: 0x8, addend: 0x0, symName: __ZNSt3__16vectorIPN7sc_core18sc_signal_inout_ifIbEENS_9allocatorIS4_EEE21_ConstructTransactionC2B8ue170006ERS7_m, symObjAddr: 0x4F08, symBinAddr: 0x10000CDB0, symSize: 0x44 }
  - { offsetInCU: 0x1D4DB, offset: 0x77302, size: 0x8, addend: 0x0, symName: __ZNSt3__19allocatorIPN7sc_core18sc_signal_inout_ifIbEEE9constructB8ue170006IS4_JRKS4_EEEvPT_DpOT0_, symObjAddr: 0x4F4C, symBinAddr: 0x10000CDF4, symSize: 0x28 }
  - { offsetInCU: 0x1D531, offset: 0x77358, size: 0x8, addend: 0x0, symName: __ZNSt3__117__compressed_pairIPPN7sc_core18sc_signal_inout_ifIbEENS_9allocatorIS4_EEE6secondB8ue170006Ev, symObjAddr: 0x4F74, symBinAddr: 0x10000CE1C, symSize: 0x24 }
  - { offsetInCU: 0x1D557, offset: 0x7737E, size: 0x8, addend: 0x0, symName: __ZNSt3__122__compressed_pair_elemINS_9allocatorIPN7sc_core18sc_signal_inout_ifIbEEEELi1ELb1EE5__getB8ue170006Ev, symObjAddr: 0x4F98, symBinAddr: 0x10000CE40, symSize: 0x14 }
  - { offsetInCU: 0x1D57D, offset: 0x773A4, size: 0x8, addend: 0x0, symName: __ZNSt3__16vectorIPN7sc_core18sc_signal_inout_ifIbEENS_9allocatorIS4_EEE21_ConstructTransactionD2B8ue170006Ev, symObjAddr: 0x4FAC, symBinAddr: 0x10000CE54, symSize: 0x20 }
  - { offsetInCU: 0x1D5A7, offset: 0x773CE, size: 0x8, addend: 0x0, symName: __ZNKSt3__16vectorIPN7sc_core18sc_signal_inout_ifIbEENS_9allocatorIS4_EEE11__recommendB8ue170006Em, symObjAddr: 0x4FCC, symBinAddr: 0x10000CE74, symSize: 0xB4 }
  - { offsetInCU: 0x1D5FC, offset: 0x77423, size: 0x8, addend: 0x0, symName: __ZNSt3__114__split_bufferIPN7sc_core18sc_signal_inout_ifIbEERNS_9allocatorIS4_EEEC1EmmS7_, symObjAddr: 0x5080, symBinAddr: 0x10000CF28, symSize: 0x44 }
  - { offsetInCU: 0x1D652, offset: 0x77479, size: 0x8, addend: 0x0, symName: __ZNSt3__114__split_bufferIPN7sc_core18sc_signal_inout_ifIbEERNS_9allocatorIS4_EEED1Ev, symObjAddr: 0x51D4, symBinAddr: 0x10000D07C, symSize: 0x2C }
  - { offsetInCU: 0x1D67E, offset: 0x774A5, size: 0x8, addend: 0x0, symName: __ZNKSt3__16vectorIPN7sc_core18sc_signal_inout_ifIbEENS_9allocatorIS4_EEE8max_sizeEv, symObjAddr: 0x5200, symBinAddr: 0x10000D0A8, symSize: 0x60 }
  - { offsetInCU: 0x1D6A6, offset: 0x774CD, size: 0x8, addend: 0x0, symName: __ZNKSt3__16vectorIPN7sc_core18sc_signal_inout_ifIbEENS_9allocatorIS4_EEE20__throw_length_errorB8ue170006Ev, symObjAddr: 0x5260, symBinAddr: 0x10000D108, symSize: 0x1C }
  - { offsetInCU: 0x1D6CC, offset: 0x774F3, size: 0x8, addend: 0x0, symName: __ZNKSt3__16vectorIPN7sc_core18sc_signal_inout_ifIbEENS_9allocatorIS4_EEE8capacityB8ue170006Ev, symObjAddr: 0x527C, symBinAddr: 0x10000D124, symSize: 0x40 }
  - { offsetInCU: 0x1D6FD, offset: 0x77524, size: 0x8, addend: 0x0, symName: __ZNSt3__116allocator_traitsINS_9allocatorIPN7sc_core18sc_signal_inout_ifIbEEEEE8max_sizeB8ue170006IS6_vEEmRKS6_, symObjAddr: 0x52BC, symBinAddr: 0x10000D164, symSize: 0x24 }
  - { offsetInCU: 0x1D72B, offset: 0x77552, size: 0x8, addend: 0x0, symName: __ZNKSt3__16vectorIPN7sc_core18sc_signal_inout_ifIbEENS_9allocatorIS4_EEE7__allocB8ue170006Ev, symObjAddr: 0x52E0, symBinAddr: 0x10000D188, symSize: 0x28 }
  - { offsetInCU: 0x1D751, offset: 0x77578, size: 0x8, addend: 0x0, symName: __ZNKSt3__19allocatorIPN7sc_core18sc_signal_inout_ifIbEEE8max_sizeB8ue170006Ev, symObjAddr: 0x5308, symBinAddr: 0x10000D1B0, symSize: 0x14 }
  - { offsetInCU: 0x1D777, offset: 0x7759E, size: 0x8, addend: 0x0, symName: __ZNKSt3__117__compressed_pairIPPN7sc_core18sc_signal_inout_ifIbEENS_9allocatorIS4_EEE6secondB8ue170006Ev, symObjAddr: 0x531C, symBinAddr: 0x10000D1C4, symSize: 0x24 }
  - { offsetInCU: 0x1D79D, offset: 0x775C4, size: 0x8, addend: 0x0, symName: __ZNKSt3__122__compressed_pair_elemINS_9allocatorIPN7sc_core18sc_signal_inout_ifIbEEEELi1ELb1EE5__getB8ue170006Ev, symObjAddr: 0x5340, symBinAddr: 0x10000D1E8, symSize: 0x14 }
  - { offsetInCU: 0x1D7C3, offset: 0x775EA, size: 0x8, addend: 0x0, symName: __ZNKSt3__16vectorIPN7sc_core18sc_signal_inout_ifIbEENS_9allocatorIS4_EEE9__end_capB8ue170006Ev, symObjAddr: 0x5354, symBinAddr: 0x10000D1FC, symSize: 0x28 }
  - { offsetInCU: 0x1D7E9, offset: 0x77610, size: 0x8, addend: 0x0, symName: __ZNKSt3__117__compressed_pairIPPN7sc_core18sc_signal_inout_ifIbEENS_9allocatorIS4_EEE5firstB8ue170006Ev, symObjAddr: 0x537C, symBinAddr: 0x10000D224, symSize: 0x24 }
  - { offsetInCU: 0x1D80F, offset: 0x77636, size: 0x8, addend: 0x0, symName: __ZNKSt3__122__compressed_pair_elemIPPN7sc_core18sc_signal_inout_ifIbEELi0ELb0EE5__getB8ue170006Ev, symObjAddr: 0x53A0, symBinAddr: 0x10000D248, symSize: 0x14 }
  - { offsetInCU: 0x1D835, offset: 0x7765C, size: 0x8, addend: 0x0, symName: __ZNSt3__114__split_bufferIPN7sc_core18sc_signal_inout_ifIbEERNS_9allocatorIS4_EEEC2EmmS7_, symObjAddr: 0x53B4, symBinAddr: 0x10000D25C, symSize: 0xD4 }
  - { offsetInCU: 0x1D8A9, offset: 0x776D0, size: 0x8, addend: 0x0, symName: __ZNSt3__117__compressed_pairIPPN7sc_core18sc_signal_inout_ifIbEERNS_9allocatorIS4_EEEC1B8ue170006IDnS8_EEOT_OT0_, symObjAddr: 0x5488, symBinAddr: 0x10000D330, symSize: 0x3C }
  - { offsetInCU: 0x1D901, offset: 0x77728, size: 0x8, addend: 0x0, symName: __ZNSt3__114__split_bufferIPN7sc_core18sc_signal_inout_ifIbEERNS_9allocatorIS4_EEE7__allocB8ue170006Ev, symObjAddr: 0x5504, symBinAddr: 0x10000D3AC, symSize: 0x28 }
  - { offsetInCU: 0x1D927, offset: 0x7774E, size: 0x8, addend: 0x0, symName: __ZNSt3__114__split_bufferIPN7sc_core18sc_signal_inout_ifIbEERNS_9allocatorIS4_EEE9__end_capB8ue170006Ev, symObjAddr: 0x552C, symBinAddr: 0x10000D3D4, symSize: 0x28 }
  - { offsetInCU: 0x1D94D, offset: 0x77774, size: 0x8, addend: 0x0, symName: __ZNSt3__117__compressed_pairIPPN7sc_core18sc_signal_inout_ifIbEERNS_9allocatorIS4_EEEC2B8ue170006IDnS8_EEOT_OT0_, symObjAddr: 0x5554, symBinAddr: 0x10000D3FC, symSize: 0x48 }
  - { offsetInCU: 0x1D9A5, offset: 0x777CC, size: 0x8, addend: 0x0, symName: __ZNSt3__122__compressed_pair_elemIPPN7sc_core18sc_signal_inout_ifIbEELi0ELb0EEC2B8ue170006IDnvEEOT_, symObjAddr: 0x559C, symBinAddr: 0x10000D444, symSize: 0x1C }
  - { offsetInCU: 0x1D9E7, offset: 0x7780E, size: 0x8, addend: 0x0, symName: __ZNSt3__122__compressed_pair_elemIRNS_9allocatorIPN7sc_core18sc_signal_inout_ifIbEEEELi1ELb0EEC2B8ue170006IS7_vEEOT_, symObjAddr: 0x55B8, symBinAddr: 0x10000D460, symSize: 0x20 }
  - { offsetInCU: 0x1DA29, offset: 0x77850, size: 0x8, addend: 0x0, symName: __ZNSt3__19allocatorIPN7sc_core18sc_signal_inout_ifIbEEE8allocateB8ue170006Em, symObjAddr: 0x55D8, symBinAddr: 0x10000D480, symSize: 0x58 }
  - { offsetInCU: 0x1DA5D, offset: 0x77884, size: 0x8, addend: 0x0, symName: __ZNSt3__117__compressed_pairIPPN7sc_core18sc_signal_inout_ifIbEERNS_9allocatorIS4_EEE6secondB8ue170006Ev, symObjAddr: 0x5630, symBinAddr: 0x10000D4D8, symSize: 0x28 }
  - { offsetInCU: 0x1DA83, offset: 0x778AA, size: 0x8, addend: 0x0, symName: __ZNSt3__122__compressed_pair_elemIRNS_9allocatorIPN7sc_core18sc_signal_inout_ifIbEEEELi1ELb0EE5__getB8ue170006Ev, symObjAddr: 0x5658, symBinAddr: 0x10000D500, symSize: 0x18 }
  - { offsetInCU: 0x1DAA9, offset: 0x778D0, size: 0x8, addend: 0x0, symName: __ZNSt3__117__compressed_pairIPPN7sc_core18sc_signal_inout_ifIbEERNS_9allocatorIS4_EEE5firstB8ue170006Ev, symObjAddr: 0x5670, symBinAddr: 0x10000D518, symSize: 0x24 }
  - { offsetInCU: 0x1DACF, offset: 0x778F6, size: 0x8, addend: 0x0, symName: __ZNKSt3__16vectorIPN7sc_core18sc_signal_inout_ifIbEENS_9allocatorIS4_EEE17__annotate_deleteB8ue170006Ev, symObjAddr: 0x5694, symBinAddr: 0x10000D53C, symSize: 0xB8 }
  - { offsetInCU: 0x1DAF5, offset: 0x7791C, size: 0x8, addend: 0x0, symName: __ZNSt3__116reverse_iteratorIPPN7sc_core18sc_signal_inout_ifIbEEEC1B8ue170006ES5_, symObjAddr: 0x57C4, symBinAddr: 0x10000D66C, symSize: 0x34 }
  - { offsetInCU: 0x1DB2D, offset: 0x77954, size: 0x8, addend: 0x0, symName: __ZNKSt3__116reverse_iteratorIPPN7sc_core18sc_signal_inout_ifIbEEE4baseB8ue170006Ev, symObjAddr: 0x57F8, symBinAddr: 0x10000D6A0, symSize: 0x18 }
  - { offsetInCU: 0x1DB53, offset: 0x7797A, size: 0x8, addend: 0x0, symName: __ZNKSt3__16vectorIPN7sc_core18sc_signal_inout_ifIbEENS_9allocatorIS4_EEE14__annotate_newB8ue170006Em, symObjAddr: 0x584C, symBinAddr: 0x10000D6F4, symSize: 0xAC }
  - { offsetInCU: 0x1DB88, offset: 0x779AF, size: 0x8, addend: 0x0, symName: __ZNKSt3__16vectorIPN7sc_core18sc_signal_inout_ifIbEENS_9allocatorIS4_EEE31__annotate_contiguous_containerB8ue170006EPKvS9_S9_S9_, symObjAddr: 0x58F8, symBinAddr: 0x10000D7A0, symSize: 0x20 }
  - { offsetInCU: 0x1DBDE, offset: 0x77A05, size: 0x8, addend: 0x0, symName: __ZNKSt3__16vectorIPN7sc_core18sc_signal_inout_ifIbEENS_9allocatorIS4_EEE4dataB8ue170006Ev, symObjAddr: 0x5918, symBinAddr: 0x10000D7C0, symSize: 0x28 }
  - { offsetInCU: 0x1DC20, offset: 0x77A47, size: 0x8, addend: 0x0, symName: __ZNKSt3__111__move_loopINS_17_ClassicAlgPolicyEEclB8ue170006INS_16reverse_iteratorIPPN7sc_core18sc_signal_inout_ifIbEEEESA_SA_EENS_4pairIT_T1_EESC_T0_SD_, symObjAddr: 0x5C30, symBinAddr: 0x10000DAD8, symSize: 0xA0 }
  - { offsetInCU: 0x1DC91, offset: 0x77AB8, size: 0x8, addend: 0x0, symName: __ZNSt3__18_IterOpsINS_17_ClassicAlgPolicyEE11__iter_moveB8ue170006IRNS_16reverse_iteratorIPPN7sc_core18sc_signal_inout_ifIbEEEEEENS_9enable_ifIXsr12is_referenceIDTdeclsr3stdE7declvalIRT_EEEEE5valueEDTclsr3stdE4movedeclsr3stdE7declvalISE_EEEEE4typeEOSD_, symObjAddr: 0x5E64, symBinAddr: 0x10000DD0C, symSize: 0x28 }
  - { offsetInCU: 0x1DCBD, offset: 0x77AE4, size: 0x8, addend: 0x0, symName: __ZNKSt3__116reverse_iteratorIPPN7sc_core18sc_signal_inout_ifIbEEEdeB8ue170006Ev, symObjAddr: 0x5E8C, symBinAddr: 0x10000DD34, symSize: 0x28 }
  - { offsetInCU: 0x1DCF1, offset: 0x77B18, size: 0x8, addend: 0x0, symName: __ZNSt3__116reverse_iteratorIPPN7sc_core18sc_signal_inout_ifIbEEEppB8ue170006Ev, symObjAddr: 0x5EB4, symBinAddr: 0x10000DD5C, symSize: 0x20 }
  - { offsetInCU: 0x1DD17, offset: 0x77B3E, size: 0x8, addend: 0x0, symName: __ZNSt3__18_IterOpsINS_17_ClassicAlgPolicyEE25__validate_iter_referenceB8ue170006IRNS_16reverse_iteratorIPPN7sc_core18sc_signal_inout_ifIbEEEEEEvv, symObjAddr: 0x5ED4, symBinAddr: 0x10000DD7C, symSize: 0x4 }
  - { offsetInCU: 0x1DD35, offset: 0x77B5C, size: 0x8, addend: 0x0, symName: __ZNSt3__118__unwrap_iter_implINS_16reverse_iteratorIPPN7sc_core18sc_signal_inout_ifIbEEEELb0EE8__unwrapB8ue170006ES7_, symObjAddr: 0x5ED8, symBinAddr: 0x10000DD80, symSize: 0x24 }
  - { offsetInCU: 0x1DD5E, offset: 0x77B85, size: 0x8, addend: 0x0, symName: __ZNSt3__14pairINS_16reverse_iteratorIPPN7sc_core18sc_signal_inout_ifIbEEEES7_EC1B8ue170006IS7_S7_LPv0EEEOT_OT0_, symObjAddr: 0x5EFC, symBinAddr: 0x10000DDA4, symSize: 0x3C }
  - { offsetInCU: 0x1DDBC, offset: 0x77BE3, size: 0x8, addend: 0x0, symName: __ZNSt3__14pairINS_16reverse_iteratorIPPN7sc_core18sc_signal_inout_ifIbEEEES7_EC2B8ue170006IS7_S7_LPv0EEEOT_OT0_, symObjAddr: 0x5F38, symBinAddr: 0x10000DDE0, symSize: 0x34 }
  - { offsetInCU: 0x1DE1A, offset: 0x77C41, size: 0x8, addend: 0x0, symName: __ZNSt3__118__unwrap_iter_implINS_16reverse_iteratorIPPN7sc_core18sc_signal_inout_ifIbEEEELb0EE8__rewrapB8ue170006ES7_S7_, symObjAddr: 0x5F6C, symBinAddr: 0x10000DE14, symSize: 0x2C }
  - { offsetInCU: 0x1DE48, offset: 0x77C6F, size: 0x8, addend: 0x0, symName: __ZNSt3__116reverse_iteratorIPPN7sc_core18sc_signal_inout_ifIbEEEC2B8ue170006ES5_, symObjAddr: 0x5F98, symBinAddr: 0x10000DE40, symSize: 0x28 }
  - { offsetInCU: 0x1DE80, offset: 0x77CA7, size: 0x8, addend: 0x0, symName: __ZNSt3__114__split_bufferIPN7sc_core18sc_signal_inout_ifIbEERNS_9allocatorIS4_EEED2Ev, symObjAddr: 0x5FC0, symBinAddr: 0x10000DE68, symSize: 0x8C }
  - { offsetInCU: 0x1DEAC, offset: 0x77CD3, size: 0x8, addend: 0x0, symName: __ZNSt3__114__split_bufferIPN7sc_core18sc_signal_inout_ifIbEERNS_9allocatorIS4_EEE5clearB8ue170006Ev, symObjAddr: 0x604C, symBinAddr: 0x10000DEF4, symSize: 0x28 }
  - { offsetInCU: 0x1DED2, offset: 0x77CF9, size: 0x8, addend: 0x0, symName: __ZNSt3__116allocator_traitsINS_9allocatorIPN7sc_core18sc_signal_inout_ifIbEEEEE10deallocateB8ue170006ERS6_PS5_m, symObjAddr: 0x6074, symBinAddr: 0x10000DF1C, symSize: 0x34 }
  - { offsetInCU: 0x1DF14, offset: 0x77D3B, size: 0x8, addend: 0x0, symName: __ZNKSt3__114__split_bufferIPN7sc_core18sc_signal_inout_ifIbEERNS_9allocatorIS4_EEE8capacityB8ue170006Ev, symObjAddr: 0x60A8, symBinAddr: 0x10000DF50, symSize: 0x40 }
  - { offsetInCU: 0x1DF3A, offset: 0x77D61, size: 0x8, addend: 0x0, symName: __ZNSt3__114__split_bufferIPN7sc_core18sc_signal_inout_ifIbEERNS_9allocatorIS4_EEE17__destruct_at_endB8ue170006EPS4_, symObjAddr: 0x60E8, symBinAddr: 0x10000DF90, symSize: 0x2C }
  - { offsetInCU: 0x1DF6E, offset: 0x77D95, size: 0x8, addend: 0x0, symName: __ZNSt3__114__split_bufferIPN7sc_core18sc_signal_inout_ifIbEERNS_9allocatorIS4_EEE17__destruct_at_endB8ue170006EPS4_NS_17integral_constantIbLb0EEE, symObjAddr: 0x6114, symBinAddr: 0x10000DFBC, symSize: 0x80 }
  - { offsetInCU: 0x1DFAF, offset: 0x77DD6, size: 0x8, addend: 0x0, symName: __ZNSt3__116allocator_traitsINS_9allocatorIPN7sc_core18sc_signal_inout_ifIbEEEEE7destroyB8ue170006IS5_vEEvRS6_PT_, symObjAddr: 0x6194, symBinAddr: 0x10000E03C, symSize: 0x2C }
  - { offsetInCU: 0x1DFEC, offset: 0x77E13, size: 0x8, addend: 0x0, symName: __ZNSt3__19allocatorIPN7sc_core18sc_signal_inout_ifIbEEE7destroyB8ue170006EPS4_, symObjAddr: 0x61C0, symBinAddr: 0x10000E068, symSize: 0x14 }
  - { offsetInCU: 0x1E020, offset: 0x77E47, size: 0x8, addend: 0x0, symName: __ZNSt3__19allocatorIPN7sc_core18sc_signal_inout_ifIbEEE10deallocateB8ue170006EPS4_m, symObjAddr: 0x61D4, symBinAddr: 0x10000E07C, symSize: 0x40 }
  - { offsetInCU: 0x1E062, offset: 0x77E89, size: 0x8, addend: 0x0, symName: __ZNKSt3__114__split_bufferIPN7sc_core18sc_signal_inout_ifIbEERNS_9allocatorIS4_EEE9__end_capB8ue170006Ev, symObjAddr: 0x6214, symBinAddr: 0x10000E0BC, symSize: 0x28 }
  - { offsetInCU: 0x1E088, offset: 0x77EAF, size: 0x8, addend: 0x0, symName: __ZNKSt3__117__compressed_pairIPPN7sc_core18sc_signal_inout_ifIbEERNS_9allocatorIS4_EEE5firstB8ue170006Ev, symObjAddr: 0x623C, symBinAddr: 0x10000E0E4, symSize: 0x24 }
  - { offsetInCU: 0x1E0AE, offset: 0x77ED5, size: 0x8, addend: 0x0, symName: __ZNKSt3__16vectorIPN7sc_core18sc_signal_inout_ifIbEENS_9allocatorIS4_EEEixB8ue170006Em, symObjAddr: 0x6260, symBinAddr: 0x10000E108, symSize: 0x24 }
...
